	.file	"../examples/tso/regression-examples/mix018/mix018.c.lz.opt.bc"
	.file	1 "/home/naling/src/inspect-0.3/../examples/tso/regression-examples/mix018/mix018.c"
	.text
.Ltext_begin:
	.data
	.text
	.globl	P0
	.align	16, 0x90
	.type	P0,@function
P0:                                     # @P0
.Ltmp1:
	.cfi_startproc
.Lfunc_begin0:
	.loc	1 32 0                  # ../examples/tso/regression-examples/mix018/mix018.c:32:0
# BB#0:                                 # %entry
	subl	$44, %esp
.Ltmp2:
	.cfi_def_cfa_offset 48
	movl	48(%esp), %eax
	movl	%eax, 40(%esp)
	movl	$8, 20(%esp)
	movl	$32, 16(%esp)
	movl	$0, 12(%esp)
	movl	$1, 8(%esp)
	movl	$a, 4(%esp)
	movl	$5, (%esp)
	calll	clap_store_pre
	.loc	1 34 3 prologue_end     # ../examples/tso/regression-examples/mix018/mix018.c:34:3
.Ltmp3:
	movl	$1, a
	movl	$8, 20(%esp)
	movl	$32, 16(%esp)
	movl	$0, 12(%esp)
	movl	$1, 8(%esp)
	movl	$a, 4(%esp)
	movl	$5, (%esp)
	calll	clap_store_post
	movl	$9, 20(%esp)
	movl	$32, 16(%esp)
	movl	$0, 12(%esp)
	movl	$1, 8(%esp)
	movl	$x, 4(%esp)
	movl	$5, (%esp)
	calll	clap_store_pre
	.loc	1 35 3                  # ../examples/tso/regression-examples/mix018/mix018.c:35:3
	movl	$1, x
	movl	$9, 20(%esp)
	movl	$32, 16(%esp)
	movl	$0, 12(%esp)
	movl	$1, 8(%esp)
	movl	$x, 4(%esp)
	movl	$5, (%esp)
	calll	clap_store_post
	movl	$1, %eax
	.loc	1 36 3                  # ../examples/tso/regression-examples/mix018/mix018.c:36:3
	addl	$44, %esp
	ret
.Ltmp4:
.Ltmp5:
	.size	P0, .Ltmp5-P0
.Lfunc_end0:
.Ltmp6:
	.cfi_endproc
.Leh_func_end0:

	.globl	P1
	.align	16, 0x90
	.type	P1,@function
P1:                                     # @P1
.Ltmp9:
	.cfi_startproc
.Lfunc_begin1:
	.loc	1 40 0                  # ../examples/tso/regression-examples/mix018/mix018.c:40:0
# BB#0:                                 # %entry
	pushl	%esi
.Ltmp10:
	.cfi_def_cfa_offset 8
	subl	$40, %esp
.Ltmp11:
	.cfi_def_cfa_offset 48
.Ltmp12:
	.cfi_offset %esi, -8
	movl	48(%esp), %eax
	movl	%eax, 36(%esp)
	movl	$18, 20(%esp)
	movl	$32, 16(%esp)
	movl	$0, 12(%esp)
	movl	$2, 8(%esp)
	movl	$x, 4(%esp)
	movl	$5, (%esp)
	calll	clap_store_pre
	.loc	1 42 3 prologue_end     # ../examples/tso/regression-examples/mix018/mix018.c:42:3
.Ltmp13:
	movl	$2, x
	movl	$18, 20(%esp)
	movl	$32, 16(%esp)
	movl	$0, 12(%esp)
	movl	$2, 8(%esp)
	movl	$x, 4(%esp)
	movl	$5, (%esp)
	calll	clap_store_post
	movl	$19, 16(%esp)
	movl	$32, 12(%esp)
	movl	$0, 8(%esp)
	movl	$y, 4(%esp)
	movl	$4, (%esp)
	calll	clap_load_pre
	.loc	1 43 3                  # ../examples/tso/regression-examples/mix018/mix018.c:43:3
	movl	y, %esi
	movl	$19, 16(%esp)
	movl	$32, 12(%esp)
	movl	$0, 8(%esp)
	movl	$y, 4(%esp)
	movl	$4, (%esp)
	calll	clap_load_post
	movl	%esi, 32(%esp)
	.loc	1 44 3                  # ../examples/tso/regression-examples/mix018/mix018.c:44:3
	movl	%esi, 4(%esp)
	movl	$.L.str, (%esp)
	calll	printf
	.loc	1 45 3                  # ../examples/tso/regression-examples/mix018/mix018.c:45:3
	cmpl	$0, 32(%esp)
	sete	%al
	movzbl	%al, %eax
	addl	$40, %esp
	popl	%esi
	ret
.Ltmp14:
.Ltmp15:
	.size	P1, .Ltmp15-P1
.Lfunc_end1:
.Ltmp16:
	.cfi_endproc
.Leh_func_end1:

	.globl	P2
	.align	16, 0x90
	.type	P2,@function
P2:                                     # @P2
.Ltmp19:
	.cfi_startproc
.Lfunc_begin2:
	.loc	1 49 0                  # ../examples/tso/regression-examples/mix018/mix018.c:49:0
# BB#0:                                 # %entry
	pushl	%esi
.Ltmp20:
	.cfi_def_cfa_offset 8
	subl	$40, %esp
.Ltmp21:
	.cfi_def_cfa_offset 48
.Ltmp22:
	.cfi_offset %esi, -8
	movl	48(%esp), %eax
	movl	%eax, 36(%esp)
	movl	$35, 20(%esp)
	movl	$32, 16(%esp)
	movl	$0, 12(%esp)
	movl	$1, 8(%esp)
	movl	$y, 4(%esp)
	movl	$5, (%esp)
	calll	clap_store_pre
	.loc	1 51 3 prologue_end     # ../examples/tso/regression-examples/mix018/mix018.c:51:3
.Ltmp23:
	movl	$1, y
	movl	$35, 20(%esp)
	movl	$32, 16(%esp)
	movl	$0, 12(%esp)
	movl	$1, 8(%esp)
	movl	$y, 4(%esp)
	movl	$5, (%esp)
	calll	clap_store_post
	movl	$36, 16(%esp)
	movl	$32, 12(%esp)
	movl	$0, 8(%esp)
	movl	$z, 4(%esp)
	movl	$4, (%esp)
	calll	clap_load_pre
	.loc	1 52 3                  # ../examples/tso/regression-examples/mix018/mix018.c:52:3
	movl	z, %esi
	movl	$36, 16(%esp)
	movl	$32, 12(%esp)
	movl	$0, 8(%esp)
	movl	$z, 4(%esp)
	movl	$4, (%esp)
	calll	clap_load_post
	movl	%esi, 32(%esp)
	.loc	1 53 3                  # ../examples/tso/regression-examples/mix018/mix018.c:53:3
	movl	%esi, 4(%esp)
	movl	$.L.str1, (%esp)
	calll	printf
	.loc	1 54 3                  # ../examples/tso/regression-examples/mix018/mix018.c:54:3
	cmpl	$0, 32(%esp)
	sete	%al
	movzbl	%al, %eax
	addl	$40, %esp
	popl	%esi
	ret
.Ltmp24:
.Ltmp25:
	.size	P2, .Ltmp25-P2
.Lfunc_end2:
.Ltmp26:
	.cfi_endproc
.Leh_func_end2:

	.globl	P3
	.align	16, 0x90
	.type	P3,@function
P3:                                     # @P3
.Ltmp29:
	.cfi_startproc
.Lfunc_begin3:
	.loc	1 58 0                  # ../examples/tso/regression-examples/mix018/mix018.c:58:0
# BB#0:                                 # %entry
	pushl	%esi
.Ltmp30:
	.cfi_def_cfa_offset 8
	subl	$40, %esp
.Ltmp31:
	.cfi_def_cfa_offset 48
.Ltmp32:
	.cfi_offset %esi, -8
	movl	48(%esp), %eax
	movl	%eax, 36(%esp)
	movl	$52, 20(%esp)
	movl	$32, 16(%esp)
	movl	$0, 12(%esp)
	movl	$1, 8(%esp)
	movl	$z, 4(%esp)
	movl	$5, (%esp)
	calll	clap_store_pre
	.loc	1 60 3 prologue_end     # ../examples/tso/regression-examples/mix018/mix018.c:60:3
.Ltmp33:
	movl	$1, z
	movl	$52, 20(%esp)
	movl	$32, 16(%esp)
	movl	$0, 12(%esp)
	movl	$1, 8(%esp)
	movl	$z, 4(%esp)
	movl	$5, (%esp)
	calll	clap_store_post
	movl	$53, 16(%esp)
	movl	$32, 12(%esp)
	movl	$0, 8(%esp)
	movl	$z, 4(%esp)
	movl	$4, (%esp)
	calll	clap_load_pre
	.loc	1 61 3                  # ../examples/tso/regression-examples/mix018/mix018.c:61:3
	movl	z, %esi
	movl	$53, 16(%esp)
	movl	$32, 12(%esp)
	movl	$0, 8(%esp)
	movl	$z, 4(%esp)
	movl	$4, (%esp)
	calll	clap_load_post
	movl	%esi, 32(%esp)
	movl	$55, 16(%esp)
	movl	$32, 12(%esp)
	movl	$0, 8(%esp)
	movl	$a, 4(%esp)
	movl	$4, (%esp)
	calll	clap_load_pre
	.loc	1 62 3                  # ../examples/tso/regression-examples/mix018/mix018.c:62:3
	movl	a, %esi
	movl	$55, 16(%esp)
	movl	$32, 12(%esp)
	movl	$0, 8(%esp)
	movl	$a, 4(%esp)
	movl	$4, (%esp)
	calll	clap_load_post
	movl	%esi, 28(%esp)
	.loc	1 63 3                  # ../examples/tso/regression-examples/mix018/mix018.c:63:3
	movl	32(%esp), %eax
	movl	%esi, 8(%esp)
	movl	%eax, 4(%esp)
	movl	$.L.str2, (%esp)
	calll	printf
	xorb	%al, %al
	.loc	1 64 3                  # ../examples/tso/regression-examples/mix018/mix018.c:64:3
	cmpl	$1, 32(%esp)
	jne	.LBB3_2
# BB#1:                                 # %land.rhs
	cmpl	$0, 28(%esp)
	sete	%al
.Ltmp34:
.LBB3_2:                                # %land.end
	movzbl	%al, %eax
	.loc	1 65 1                  # ../examples/tso/regression-examples/mix018/mix018.c:65:1
	addl	$40, %esp
	popl	%esi
	ret
.Ltmp35:
.Ltmp36:
	.size	P3, .Ltmp36-P3
.Lfunc_end3:
.Ltmp37:
	.cfi_endproc
.Leh_func_end3:

	.globl	main
	.align	16, 0x90
	.type	main,@function
main:                                   # @main
.Ltmp40:
	.cfi_startproc
.Lfunc_begin4:
	.loc	1 68 0                  # ../examples/tso/regression-examples/mix018/mix018.c:68:0
# BB#0:                                 # %entry
	pushl	%esi
.Ltmp41:
	.cfi_def_cfa_offset 8
	subl	$56, %esp
.Ltmp42:
	.cfi_def_cfa_offset 64
.Ltmp43:
	.cfi_offset %esi, -8
	movl	$0, 52(%esp)
	leal	48(%esp), %eax
	.loc	1 72 3 prologue_end     # ../examples/tso/regression-examples/mix018/mix018.c:72:3
.Ltmp44:
	movl	%eax, (%esp)
	movl	$0, 12(%esp)
	movl	$P0, 8(%esp)
	movl	$0, 4(%esp)
	calll	clap_thread_create
	leal	44(%esp), %eax
	.loc	1 73 3                  # ../examples/tso/regression-examples/mix018/mix018.c:73:3
	movl	%eax, (%esp)
	movl	$0, 12(%esp)
	movl	$P1, 8(%esp)
	movl	$0, 4(%esp)
	calll	clap_thread_create
	leal	40(%esp), %eax
	.loc	1 74 3                  # ../examples/tso/regression-examples/mix018/mix018.c:74:3
	movl	%eax, (%esp)
	movl	$0, 12(%esp)
	movl	$P2, 8(%esp)
	movl	$0, 4(%esp)
	calll	clap_thread_create
	leal	36(%esp), %eax
	.loc	1 75 3                  # ../examples/tso/regression-examples/mix018/mix018.c:75:3
	movl	%eax, (%esp)
	movl	$0, 12(%esp)
	movl	$P3, 8(%esp)
	movl	$0, 4(%esp)
	calll	clap_thread_create
	.loc	1 77 3                  # ../examples/tso/regression-examples/mix018/mix018.c:77:3
	movl	48(%esp), %eax
	leal	32(%esp), %ecx
	movl	%ecx, 4(%esp)
	movl	%eax, (%esp)
	calll	clap_thread_join
	.loc	1 78 3                  # ../examples/tso/regression-examples/mix018/mix018.c:78:3
	movl	44(%esp), %eax
	leal	28(%esp), %ecx
	movl	%ecx, 4(%esp)
	movl	%eax, (%esp)
	calll	clap_thread_join
	.loc	1 79 3                  # ../examples/tso/regression-examples/mix018/mix018.c:79:3
	movl	40(%esp), %eax
	leal	24(%esp), %ecx
	movl	%ecx, 4(%esp)
	movl	%eax, (%esp)
	calll	clap_thread_join
	.loc	1 80 3                  # ../examples/tso/regression-examples/mix018/mix018.c:80:3
	movl	36(%esp), %eax
	leal	20(%esp), %ecx
	movl	%ecx, 4(%esp)
	movl	%eax, (%esp)
	calll	clap_thread_join
	movl	$104, 16(%esp)
	movl	$32, 12(%esp)
	movl	$0, 8(%esp)
	movl	$x, 4(%esp)
	movl	$4, (%esp)
	calll	clap_load_pre
	.loc	1 83 3                  # ../examples/tso/regression-examples/mix018/mix018.c:83:3
	movl	x, %esi
	movl	$104, 16(%esp)
	movl	$32, 12(%esp)
	movl	$0, 8(%esp)
	movl	$x, 4(%esp)
	movl	$4, (%esp)
	calll	clap_load_post
	cmpl	$2, %esi
	jne	.LBB4_5
# BB#1:                                 # %land.lhs.true
	cmpl	$0, 28(%esp)
	je	.LBB4_5
# BB#2:                                 # %land.lhs.true8
	cmpl	$0, 24(%esp)
	je	.LBB4_5
# BB#3:                                 # %land.lhs.true10
	cmpl	$0, 20(%esp)
	je	.LBB4_5
# BB#4:                                 # %if.then
	.loc	1 84 5                  # ../examples/tso/regression-examples/mix018/mix018.c:84:5
.Ltmp45:
	movl	$.L.str3, (%esp)
	calll	printf
	.loc	1 85 5                  # ../examples/tso/regression-examples/mix018/mix018.c:85:5
	movl	$.L.str4, (%esp)
	calll	printf
.Ltmp46:
.LBB4_5:                                # %if.end
	xorl	%eax, %eax
	.loc	1 88 3                  # ../examples/tso/regression-examples/mix018/mix018.c:88:3
	addl	$56, %esp
	popl	%esi
	ret
.Ltmp47:
.Ltmp48:
	.size	main, .Ltmp48-main
.Lfunc_end4:
.Ltmp49:
	.cfi_endproc
.Leh_func_end4:

	.type	a,@object               # @a
	.comm	a,4,4
	.type	x,@object               # @x
	.comm	x,4,4
	.type	y,@object               # @y
	.comm	y,4,4
	.type	.L.str,@object          # @.str
	.section	.rodata.str1.1,"aMS",@progbits,1
.L.str:
	.asciz	 "\n %%%% (EAX1=%d) %%%%"
	.size	.L.str, 22

	.type	z,@object               # @z
	.comm	z,4,4
	.type	.L.str1,@object         # @.str1
.L.str1:
	.asciz	 "\n %%%% (EAX2=%d) %%%%"
	.size	.L.str1, 22

	.type	.L.str2,@object         # @.str2
.L.str2:
	.asciz	 "\n %%%% (EAX3=%d, EBX3=%d) %%%%"
	.size	.L.str2, 31

	.type	.L.str3,@object         # @.str3
.L.str3:
	.asciz	 "\n@@@CLAP: There is a SC violation! \n"
	.size	.L.str3, 37

	.type	.L.str4,@object         # @.str4
.L.str4:
	.asciz	 "\033[1;31m SC Violation!!! \033[0m\n"
	.size	.L.str4, 30

	.cfi_sections .debug_frame
	.text
.Ltext_end:
	.data
.Ldata_end:
	.text
.Lsection_end1:
	.section	".note.GNU-stack","",@progbits
