	.file	"/home/naling/src/examples/tso/regression-examples/mix000/mix000.c.lz.opt.bc"
	.file	1 "/home/naling/src/examples/tso/regression-examples/mix000/mix000.c"
	.text
.Ltext_begin:
	.data
	.text
	.globl	P0
	.align	16, 0x90
	.type	P0,@function
P0:                                     # @P0
.Ltmp2:
	.cfi_startproc
.Lfunc_begin0:
	.loc	1 32 0                  # /home/naling/src/examples/tso/regression-examples/mix000/mix000.c:32:0
# BB#0:                                 # %entry
	pushl	%esi
.Ltmp3:
	.cfi_def_cfa_offset 8
	subl	$40, %esp
.Ltmp4:
	.cfi_def_cfa_offset 48
.Ltmp5:
	.cfi_offset %esi, -8
	movl	48(%esp), %eax
	movl	%eax, 36(%esp)
	movl	$8, 20(%esp)
	movl	$32, 16(%esp)
	movl	$0, 12(%esp)
	movl	$1, 8(%esp)
	movl	$y, 4(%esp)
	movl	$5, (%esp)
	calll	clap_store_pre
	.loc	1 34 3 prologue_end     # /home/naling/src/examples/tso/regression-examples/mix000/mix000.c:34:3
.Ltmp6:
	movl	$1, y
	movl	$8, 20(%esp)
	movl	$32, 16(%esp)
	movl	$0, 12(%esp)
	movl	$1, 8(%esp)
	movl	$y, 4(%esp)
	movl	$5, (%esp)
	calll	clap_store_post
	movl	$9, 16(%esp)
	movl	$32, 12(%esp)
	movl	$0, 8(%esp)
	movl	$y, 4(%esp)
	movl	$4, (%esp)
	calll	clap_load_pre
	.loc	1 35 3                  # /home/naling/src/examples/tso/regression-examples/mix000/mix000.c:35:3
	movl	y, %esi
	movl	$9, 16(%esp)
	movl	$32, 12(%esp)
	movl	$0, 8(%esp)
	movl	$y, 4(%esp)
	movl	$4, (%esp)
	calll	clap_load_post
	movl	%esi, 32(%esp)
	movl	$11, 16(%esp)
	movl	$32, 12(%esp)
	movl	$0, 8(%esp)
	movl	$x, 4(%esp)
	movl	$4, (%esp)
	calll	clap_load_pre
	.loc	1 36 3                  # /home/naling/src/examples/tso/regression-examples/mix000/mix000.c:36:3
	movl	x, %esi
	movl	$11, 16(%esp)
	movl	$32, 12(%esp)
	movl	$0, 8(%esp)
	movl	$x, 4(%esp)
	movl	$4, (%esp)
	calll	clap_load_post
	movl	%esi, 28(%esp)
	xorb	%al, %al
	.loc	1 38 3                  # /home/naling/src/examples/tso/regression-examples/mix000/mix000.c:38:3
	cmpl	$1, 32(%esp)
	jne	.LBB0_2
# BB#1:                                 # %land.rhs
	cmpl	$0, 28(%esp)
	sete	%al
.Ltmp7:
.LBB0_2:                                # %land.end
	movzbl	%al, %eax
	.loc	1 39 1                  # /home/naling/src/examples/tso/regression-examples/mix000/mix000.c:39:1
	addl	$40, %esp
	popl	%esi
	ret
.Ltmp8:
.Ltmp9:
	.size	P0, .Ltmp9-P0
.Lfunc_end0:
.Ltmp10:
	.cfi_endproc
.Leh_func_end0:

	.globl	P1
	.align	16, 0x90
	.type	P1,@function
P1:                                     # @P1
.Ltmp13:
	.cfi_startproc
.Lfunc_begin1:
	.loc	1 42 0                  # /home/naling/src/examples/tso/regression-examples/mix000/mix000.c:42:0
# BB#0:                                 # %entry
	pushl	%esi
.Ltmp14:
	.cfi_def_cfa_offset 8
	subl	$40, %esp
.Ltmp15:
	.cfi_def_cfa_offset 48
.Ltmp16:
	.cfi_offset %esi, -8
	movl	48(%esp), %eax
	movl	%eax, 36(%esp)
	movl	$30, 20(%esp)
	movl	$32, 16(%esp)
	movl	$0, 12(%esp)
	movl	$1, 8(%esp)
	movl	$x, 4(%esp)
	movl	$5, (%esp)
	calll	clap_store_pre
	.loc	1 44 3 prologue_end     # /home/naling/src/examples/tso/regression-examples/mix000/mix000.c:44:3
.Ltmp17:
	movl	$1, x
	movl	$30, 20(%esp)
	movl	$32, 16(%esp)
	movl	$0, 12(%esp)
	movl	$1, 8(%esp)
	movl	$x, 4(%esp)
	movl	$5, (%esp)
	calll	clap_store_post
	movl	$31, 16(%esp)
	movl	$32, 12(%esp)
	movl	$0, 8(%esp)
	movl	$x, 4(%esp)
	movl	$4, (%esp)
	calll	clap_load_pre
	.loc	1 45 3                  # /home/naling/src/examples/tso/regression-examples/mix000/mix000.c:45:3
	movl	x, %esi
	movl	$31, 16(%esp)
	movl	$32, 12(%esp)
	movl	$0, 8(%esp)
	movl	$x, 4(%esp)
	movl	$4, (%esp)
	calll	clap_load_post
	movl	%esi, 32(%esp)
	movl	$33, 16(%esp)
	movl	$32, 12(%esp)
	movl	$0, 8(%esp)
	movl	$y, 4(%esp)
	movl	$4, (%esp)
	calll	clap_load_pre
	.loc	1 46 3                  # /home/naling/src/examples/tso/regression-examples/mix000/mix000.c:46:3
	movl	y, %esi
	movl	$33, 16(%esp)
	movl	$32, 12(%esp)
	movl	$0, 8(%esp)
	movl	$y, 4(%esp)
	movl	$4, (%esp)
	calll	clap_load_post
	movl	%esi, 28(%esp)
	xorb	%al, %al
	.loc	1 48 3                  # /home/naling/src/examples/tso/regression-examples/mix000/mix000.c:48:3
	cmpl	$1, 32(%esp)
	jne	.LBB1_2
# BB#1:                                 # %land.rhs
	cmpl	$0, 28(%esp)
	sete	%al
.Ltmp18:
.LBB1_2:                                # %land.end
	movzbl	%al, %eax
	.loc	1 49 1                  # /home/naling/src/examples/tso/regression-examples/mix000/mix000.c:49:1
	addl	$40, %esp
	popl	%esi
	ret
.Ltmp19:
.Ltmp20:
	.size	P1, .Ltmp20-P1
.Lfunc_end1:
.Ltmp21:
	.cfi_endproc
.Leh_func_end1:

	.globl	main
	.align	16, 0x90
	.type	main,@function
main:                                   # @main
.Ltmp23:
	.cfi_startproc
.Lfunc_begin2:
	.loc	1 52 0                  # /home/naling/src/examples/tso/regression-examples/mix000/mix000.c:52:0
# BB#0:                                 # %entry
	subl	$44, %esp
.Ltmp24:
	.cfi_def_cfa_offset 48
	movl	$0, 40(%esp)
	movl	$55, 20(%esp)
	movl	$32, 16(%esp)
	movl	$0, 12(%esp)
	movl	$0, 8(%esp)
	movl	$y, 4(%esp)
	movl	$5, (%esp)
	calll	clap_store_pre
	.loc	1 56 3 prologue_end     # /home/naling/src/examples/tso/regression-examples/mix000/mix000.c:56:3
.Ltmp25:
	movl	$0, y
	movl	$55, 20(%esp)
	movl	$32, 16(%esp)
	movl	$0, 12(%esp)
	movl	$0, 8(%esp)
	movl	$y, 4(%esp)
	movl	$5, (%esp)
	calll	clap_store_post
	movl	$56, 20(%esp)
	movl	$32, 16(%esp)
	movl	$0, 12(%esp)
	movl	$0, 8(%esp)
	movl	$x, 4(%esp)
	movl	$5, (%esp)
	calll	clap_store_pre
	movl	$0, x
	movl	$56, 20(%esp)
	movl	$32, 16(%esp)
	movl	$0, 12(%esp)
	movl	$0, 8(%esp)
	movl	$x, 4(%esp)
	movl	$5, (%esp)
	calll	clap_store_post
	leal	36(%esp), %eax
	.loc	1 58 3                  # /home/naling/src/examples/tso/regression-examples/mix000/mix000.c:58:3
	movl	%eax, (%esp)
	movl	$0, 12(%esp)
	movl	$P0, 8(%esp)
	movl	$0, 4(%esp)
	calll	clap_thread_create
	leal	32(%esp), %eax
	.loc	1 59 3                  # /home/naling/src/examples/tso/regression-examples/mix000/mix000.c:59:3
	movl	%eax, (%esp)
	movl	$0, 12(%esp)
	movl	$P1, 8(%esp)
	movl	$0, 4(%esp)
	calll	clap_thread_create
	.loc	1 61 3                  # /home/naling/src/examples/tso/regression-examples/mix000/mix000.c:61:3
	movl	36(%esp), %eax
	leal	28(%esp), %ecx
	movl	%ecx, 4(%esp)
	movl	%eax, (%esp)
	calll	clap_thread_join
	.loc	1 62 3                  # /home/naling/src/examples/tso/regression-examples/mix000/mix000.c:62:3
	movl	32(%esp), %eax
	leal	24(%esp), %ecx
	movl	%ecx, 4(%esp)
	movl	%eax, (%esp)
	calll	clap_thread_join
	.loc	1 65 3                  # /home/naling/src/examples/tso/regression-examples/mix000/mix000.c:65:3
	cmpl	$0, 28(%esp)
	je	.LBB2_3
# BB#1:                                 # %land.lhs.true
	cmpl	$0, 24(%esp)
	je	.LBB2_3
# BB#2:                                 # %if.then
	.loc	1 66 5                  # /home/naling/src/examples/tso/regression-examples/mix000/mix000.c:66:5
.Ltmp26:
	movl	$.L.str, (%esp)
	calll	printf
	.loc	1 67 5                  # /home/naling/src/examples/tso/regression-examples/mix000/mix000.c:67:5
	movl	$.L.str1, (%esp)
	calll	printf
.Ltmp27:
.LBB2_3:                                # %if.end
	xorl	%eax, %eax
	.loc	1 70 3                  # /home/naling/src/examples/tso/regression-examples/mix000/mix000.c:70:3
	addl	$44, %esp
	ret
.Ltmp28:
.Ltmp29:
	.size	main, .Ltmp29-main
.Lfunc_end2:
.Ltmp30:
	.cfi_endproc
.Leh_func_end2:

	.type	y,@object               # @y
	.comm	y,4,4
	.type	x,@object               # @x
	.comm	x,4,4
	.type	.L.str,@object          # @.str
	.section	.rodata.str1.1,"aMS",@progbits,1
.L.str:
	.asciz	 "\n@@@CLAP: There is a SC violation! \n"
	.size	.L.str, 37

	.type	.L.str1,@object         # @.str1
.L.str1:
	.asciz	 "\033[1;31m SC Violation!!! \033[0m\n"
	.size	.L.str1, 30

	.type	z,@object               # @z
	.comm	z,4,4
	.cfi_sections .debug_frame
	.text
.Ltext_end:
	.data
.Ldata_end:
	.text
.Lsection_end1:
	.section	".note.GNU-stack","",@progbits
