	.file	"../examples/tso/regression-examples/safe005/safe005.c.lz.opt.bc"
	.file	1 "/home/naling/src/inspect-0.3/../examples/tso/regression-examples/safe005/safe005.c"
	.text
.Ltext_begin:
	.data
	.text
	.globl	P0
	.align	16, 0x90
	.type	P0,@function
P0:                                     # @P0
.Ltmp2:
	.cfi_startproc
.Lfunc_begin0:
	.loc	1 31 0                  # ../examples/tso/regression-examples/safe005/safe005.c:31:0
# BB#0:                                 # %entry
	pushl	%esi
.Ltmp3:
	.cfi_def_cfa_offset 8
	subl	$40, %esp
.Ltmp4:
	.cfi_def_cfa_offset 48
.Ltmp5:
	.cfi_offset %esi, -8
	movl	48(%esp), %eax
	movl	%eax, 36(%esp)
	movl	$8, 16(%esp)
	movl	$32, 12(%esp)
	movl	$0, 8(%esp)
	movl	$z, 4(%esp)
	movl	$4, (%esp)
	calll	clap_load_pre
	.loc	1 33 3 prologue_end     # ../examples/tso/regression-examples/safe005/safe005.c:33:3
.Ltmp6:
	movl	z, %esi
	movl	$8, 16(%esp)
	movl	$32, 12(%esp)
	movl	$0, 8(%esp)
	movl	$z, 4(%esp)
	movl	$4, (%esp)
	calll	clap_load_post
	movl	%esi, 32(%esp)
	movl	$10, 20(%esp)
	movl	$32, 16(%esp)
	movl	$0, 12(%esp)
	movl	$1, 8(%esp)
	movl	$x, 4(%esp)
	movl	$5, (%esp)
	calll	clap_store_pre
	.loc	1 34 3                  # ../examples/tso/regression-examples/safe005/safe005.c:34:3
	movl	$1, x
	movl	$10, 20(%esp)
	movl	$32, 16(%esp)
	movl	$0, 12(%esp)
	movl	$1, 8(%esp)
	movl	$x, 4(%esp)
	movl	$5, (%esp)
	calll	clap_store_post
	.loc	1 35 3                  # ../examples/tso/regression-examples/safe005/safe005.c:35:3
	movl	32(%esp), %eax
	movl	%eax, 4(%esp)
	movl	$.L.str, (%esp)
	calll	printf
	.loc	1 36 3                  # ../examples/tso/regression-examples/safe005/safe005.c:36:3
	cmpl	$1, 32(%esp)
	sete	%al
	movzbl	%al, %eax
	addl	$40, %esp
	popl	%esi
	ret
.Ltmp7:
.Ltmp8:
	.size	P0, .Ltmp8-P0
.Lfunc_end0:
.Ltmp9:
	.cfi_endproc
.Leh_func_end0:

	.globl	P1
	.align	16, 0x90
	.type	P1,@function
P1:                                     # @P1
.Ltmp12:
	.cfi_startproc
.Lfunc_begin1:
	.loc	1 40 0                  # ../examples/tso/regression-examples/safe005/safe005.c:40:0
# BB#0:                                 # %entry
	pushl	%esi
.Ltmp13:
	.cfi_def_cfa_offset 8
	subl	$40, %esp
.Ltmp14:
	.cfi_def_cfa_offset 48
.Ltmp15:
	.cfi_offset %esi, -8
	movl	48(%esp), %eax
	movl	%eax, 36(%esp)
	movl	$25, 16(%esp)
	movl	$32, 12(%esp)
	movl	$0, 8(%esp)
	movl	$x, 4(%esp)
	movl	$4, (%esp)
	calll	clap_load_pre
	.loc	1 42 3 prologue_end     # ../examples/tso/regression-examples/safe005/safe005.c:42:3
.Ltmp16:
	movl	x, %esi
	movl	$25, 16(%esp)
	movl	$32, 12(%esp)
	movl	$0, 8(%esp)
	movl	$x, 4(%esp)
	movl	$4, (%esp)
	calll	clap_load_post
	movl	%esi, 32(%esp)
	movl	$27, 20(%esp)
	movl	$32, 16(%esp)
	movl	$0, 12(%esp)
	movl	$1, 8(%esp)
	movl	$y, 4(%esp)
	movl	$5, (%esp)
	calll	clap_store_pre
	.loc	1 43 3                  # ../examples/tso/regression-examples/safe005/safe005.c:43:3
	movl	$1, y
	movl	$27, 20(%esp)
	movl	$32, 16(%esp)
	movl	$0, 12(%esp)
	movl	$1, 8(%esp)
	movl	$y, 4(%esp)
	movl	$5, (%esp)
	calll	clap_store_post
	.loc	1 44 3                  # ../examples/tso/regression-examples/safe005/safe005.c:44:3
	movl	32(%esp), %eax
	movl	%eax, 4(%esp)
	movl	$.L.str1, (%esp)
	calll	printf
	.loc	1 45 3                  # ../examples/tso/regression-examples/safe005/safe005.c:45:3
	cmpl	$1, 32(%esp)
	sete	%al
	movzbl	%al, %eax
	addl	$40, %esp
	popl	%esi
	ret
.Ltmp17:
.Ltmp18:
	.size	P1, .Ltmp18-P1
.Lfunc_end1:
.Ltmp19:
	.cfi_endproc
.Leh_func_end1:

	.globl	P2
	.align	16, 0x90
	.type	P2,@function
P2:                                     # @P2
.Ltmp22:
	.cfi_startproc
.Lfunc_begin2:
	.loc	1 49 0                  # ../examples/tso/regression-examples/safe005/safe005.c:49:0
# BB#0:                                 # %entry
	pushl	%esi
.Ltmp23:
	.cfi_def_cfa_offset 8
	subl	$40, %esp
.Ltmp24:
	.cfi_def_cfa_offset 48
.Ltmp25:
	.cfi_offset %esi, -8
	movl	48(%esp), %eax
	movl	%eax, 36(%esp)
	movl	$42, 16(%esp)
	movl	$32, 12(%esp)
	movl	$0, 8(%esp)
	movl	$y, 4(%esp)
	movl	$4, (%esp)
	calll	clap_load_pre
	.loc	1 51 3 prologue_end     # ../examples/tso/regression-examples/safe005/safe005.c:51:3
.Ltmp26:
	movl	y, %esi
	movl	$42, 16(%esp)
	movl	$32, 12(%esp)
	movl	$0, 8(%esp)
	movl	$y, 4(%esp)
	movl	$4, (%esp)
	calll	clap_load_post
	movl	%esi, 32(%esp)
	movl	$44, 20(%esp)
	movl	$32, 16(%esp)
	movl	$0, 12(%esp)
	movl	$1, 8(%esp)
	movl	$z, 4(%esp)
	movl	$5, (%esp)
	calll	clap_store_pre
	.loc	1 52 3                  # ../examples/tso/regression-examples/safe005/safe005.c:52:3
	movl	$1, z
	movl	$44, 20(%esp)
	movl	$32, 16(%esp)
	movl	$0, 12(%esp)
	movl	$1, 8(%esp)
	movl	$z, 4(%esp)
	movl	$5, (%esp)
	calll	clap_store_post
	.loc	1 53 3                  # ../examples/tso/regression-examples/safe005/safe005.c:53:3
	movl	32(%esp), %eax
	movl	%eax, 4(%esp)
	movl	$.L.str2, (%esp)
	calll	printf
	.loc	1 54 3                  # ../examples/tso/regression-examples/safe005/safe005.c:54:3
	cmpl	$1, 32(%esp)
	sete	%al
	movzbl	%al, %eax
	addl	$40, %esp
	popl	%esi
	ret
.Ltmp27:
.Ltmp28:
	.size	P2, .Ltmp28-P2
.Lfunc_end2:
.Ltmp29:
	.cfi_endproc
.Leh_func_end2:

	.globl	main
	.align	16, 0x90
	.type	main,@function
main:                                   # @main
.Ltmp31:
	.cfi_startproc
.Lfunc_begin3:
	.loc	1 58 0                  # ../examples/tso/regression-examples/safe005/safe005.c:58:0
# BB#0:                                 # %entry
	subl	$60, %esp
.Ltmp32:
	.cfi_def_cfa_offset 64
	movl	$0, 56(%esp)
	movl	$66, 20(%esp)
	movl	$32, 16(%esp)
	movl	$0, 12(%esp)
	movl	$0, 8(%esp)
	movl	$z, 4(%esp)
	movl	$5, (%esp)
	calll	clap_store_pre
	.loc	1 62 3 prologue_end     # ../examples/tso/regression-examples/safe005/safe005.c:62:3
.Ltmp33:
	movl	$0, z
	movl	$66, 20(%esp)
	movl	$32, 16(%esp)
	movl	$0, 12(%esp)
	movl	$0, 8(%esp)
	movl	$z, 4(%esp)
	movl	$5, (%esp)
	calll	clap_store_post
	movl	$67, 20(%esp)
	movl	$32, 16(%esp)
	movl	$0, 12(%esp)
	movl	$0, 8(%esp)
	movl	$y, 4(%esp)
	movl	$5, (%esp)
	calll	clap_store_pre
	movl	$0, y
	movl	$67, 20(%esp)
	movl	$32, 16(%esp)
	movl	$0, 12(%esp)
	movl	$0, 8(%esp)
	movl	$y, 4(%esp)
	movl	$5, (%esp)
	calll	clap_store_post
	movl	$68, 20(%esp)
	movl	$32, 16(%esp)
	movl	$0, 12(%esp)
	movl	$0, 8(%esp)
	movl	$x, 4(%esp)
	movl	$5, (%esp)
	calll	clap_store_pre
	movl	$0, x
	movl	$68, 20(%esp)
	movl	$32, 16(%esp)
	movl	$0, 12(%esp)
	movl	$0, 8(%esp)
	movl	$x, 4(%esp)
	movl	$5, (%esp)
	calll	clap_store_post
	leal	52(%esp), %eax
	.loc	1 64 3                  # ../examples/tso/regression-examples/safe005/safe005.c:64:3
	movl	%eax, (%esp)
	movl	$0, 12(%esp)
	movl	$P0, 8(%esp)
	movl	$0, 4(%esp)
	calll	clap_thread_create
	leal	48(%esp), %eax
	.loc	1 65 3                  # ../examples/tso/regression-examples/safe005/safe005.c:65:3
	movl	%eax, (%esp)
	movl	$0, 12(%esp)
	movl	$P1, 8(%esp)
	movl	$0, 4(%esp)
	calll	clap_thread_create
	leal	44(%esp), %eax
	.loc	1 66 3                  # ../examples/tso/regression-examples/safe005/safe005.c:66:3
	movl	%eax, (%esp)
	movl	$0, 12(%esp)
	movl	$P2, 8(%esp)
	movl	$0, 4(%esp)
	calll	clap_thread_create
	.loc	1 68 3                  # ../examples/tso/regression-examples/safe005/safe005.c:68:3
	movl	52(%esp), %eax
	leal	40(%esp), %ecx
	movl	%ecx, 4(%esp)
	movl	%eax, (%esp)
	calll	clap_thread_join
	.loc	1 69 3                  # ../examples/tso/regression-examples/safe005/safe005.c:69:3
	movl	48(%esp), %eax
	leal	36(%esp), %ecx
	movl	%ecx, 4(%esp)
	movl	%eax, (%esp)
	calll	clap_thread_join
	.loc	1 70 3                  # ../examples/tso/regression-examples/safe005/safe005.c:70:3
	movl	44(%esp), %eax
	leal	32(%esp), %ecx
	movl	%ecx, 4(%esp)
	movl	%eax, (%esp)
	calll	clap_thread_join
	.loc	1 73 3                  # ../examples/tso/regression-examples/safe005/safe005.c:73:3
	cmpl	$0, 40(%esp)
	je	.LBB3_4
# BB#1:                                 # %land.lhs.true
	cmpl	$0, 36(%esp)
	je	.LBB3_4
# BB#2:                                 # %land.lhs.true7
	cmpl	$0, 32(%esp)
	je	.LBB3_4
# BB#3:                                 # %if.then
	.loc	1 74 5                  # ../examples/tso/regression-examples/safe005/safe005.c:74:5
.Ltmp34:
	movl	$.L.str3, (%esp)
	calll	printf
	.loc	1 75 5                  # ../examples/tso/regression-examples/safe005/safe005.c:75:5
	movl	$.L.str4, (%esp)
	calll	printf
.Ltmp35:
.LBB3_4:                                # %if.end
	xorl	%eax, %eax
	.loc	1 78 3                  # ../examples/tso/regression-examples/safe005/safe005.c:78:3
	addl	$60, %esp
	ret
.Ltmp36:
.Ltmp37:
	.size	main, .Ltmp37-main
.Lfunc_end3:
.Ltmp38:
	.cfi_endproc
.Leh_func_end3:

	.type	z,@object               # @z
	.comm	z,4,4
	.type	x,@object               # @x
	.comm	x,4,4
	.type	.L.str,@object          # @.str
	.section	.rodata.str1.1,"aMS",@progbits,1
.L.str:
	.asciz	 "\n %%%% (EAX0=%d) %%%%\n"
	.size	.L.str, 23

	.type	y,@object               # @y
	.comm	y,4,4
	.type	.L.str1,@object         # @.str1
.L.str1:
	.asciz	 "\n %%%% (EAX1=%d) %%%%\n"
	.size	.L.str1, 23

	.type	.L.str2,@object         # @.str2
.L.str2:
	.asciz	 "\n %%%% (EAX2=%d) %%%%\n"
	.size	.L.str2, 23

	.type	.L.str3,@object         # @.str3
.L.str3:
	.asciz	 "\n@@@CLAP: There is a SC violation! \n"
	.size	.L.str3, 37

	.type	.L.str4,@object         # @.str4
.L.str4:
	.asciz	 "\033[1;31m SC Violation!!! \033[0m\n"
	.size	.L.str4, 30

	.cfi_sections .debug_frame
	.text
.Ltext_end:
	.data
.Ldata_end:
	.text
.Lsection_end1:
	.section	".note.GNU-stack","",@progbits
