	.file	"/home/naling/src/examples/tso/regression-examples/mix004/mix004.c.lz.opt.bc"
	.file	1 "/home/naling/src/examples/tso/regression-examples/mix004/mix004.c"
	.text
.Ltext_begin:
	.data
	.text
	.globl	P0
	.align	16, 0x90
	.type	P0,@function
P0:                                     # @P0
.Ltmp2:
	.cfi_startproc
.Lfunc_begin0:
	.loc	1 32 0                  # /home/naling/src/examples/tso/regression-examples/mix004/mix004.c:32:0
# BB#0:                                 # %entry
	pushl	%esi
.Ltmp3:
	.cfi_def_cfa_offset 8
	subl	$40, %esp
.Ltmp4:
	.cfi_def_cfa_offset 48
.Ltmp5:
	.cfi_offset %esi, -8
	movl	48(%esp), %eax
	movl	%eax, 36(%esp)
	movl	$8, 20(%esp)
	movl	$32, 16(%esp)
	movl	$0, 12(%esp)
	movl	$1, 8(%esp)
	movl	$a, 4(%esp)
	movl	$5, (%esp)
	calll	clap_store_pre
	.loc	1 34 3 prologue_end     # /home/naling/src/examples/tso/regression-examples/mix004/mix004.c:34:3
.Ltmp6:
	movl	$1, a
	movl	$8, 20(%esp)
	movl	$32, 16(%esp)
	movl	$0, 12(%esp)
	movl	$1, 8(%esp)
	movl	$a, 4(%esp)
	movl	$5, (%esp)
	calll	clap_store_post
	movl	$9, 16(%esp)
	movl	$32, 12(%esp)
	movl	$0, 8(%esp)
	movl	$x, 4(%esp)
	movl	$4, (%esp)
	calll	clap_load_pre
	.loc	1 35 3                  # /home/naling/src/examples/tso/regression-examples/mix004/mix004.c:35:3
	movl	x, %esi
	movl	$9, 16(%esp)
	movl	$32, 12(%esp)
	movl	$0, 8(%esp)
	movl	$x, 4(%esp)
	movl	$4, (%esp)
	calll	clap_load_post
	movl	%esi, 32(%esp)
	.loc	1 36 3                  # /home/naling/src/examples/tso/regression-examples/mix004/mix004.c:36:3
	movl	%esi, 4(%esp)
	movl	$.L.str, (%esp)
	calll	printf
	.loc	1 37 3                  # /home/naling/src/examples/tso/regression-examples/mix004/mix004.c:37:3
	cmpl	$0, 32(%esp)
	sete	%al
	movzbl	%al, %eax
	addl	$40, %esp
	popl	%esi
	ret
.Ltmp7:
.Ltmp8:
	.size	P0, .Ltmp8-P0
.Lfunc_end0:
.Ltmp9:
	.cfi_endproc
.Leh_func_end0:

	.globl	P1
	.align	16, 0x90
	.type	P1,@function
P1:                                     # @P1
.Ltmp12:
	.cfi_startproc
.Lfunc_begin1:
	.loc	1 41 0                  # /home/naling/src/examples/tso/regression-examples/mix004/mix004.c:41:0
# BB#0:                                 # %entry
	pushl	%esi
.Ltmp13:
	.cfi_def_cfa_offset 8
	subl	$40, %esp
.Ltmp14:
	.cfi_def_cfa_offset 48
.Ltmp15:
	.cfi_offset %esi, -8
	movl	48(%esp), %eax
	movl	%eax, 36(%esp)
	movl	$25, 20(%esp)
	movl	$32, 16(%esp)
	movl	$0, 12(%esp)
	movl	$1, 8(%esp)
	movl	$x, 4(%esp)
	movl	$5, (%esp)
	calll	clap_store_pre
	.loc	1 43 3 prologue_end     # /home/naling/src/examples/tso/regression-examples/mix004/mix004.c:43:3
.Ltmp16:
	movl	$1, x
	movl	$25, 20(%esp)
	movl	$32, 16(%esp)
	movl	$0, 12(%esp)
	movl	$1, 8(%esp)
	movl	$x, 4(%esp)
	movl	$5, (%esp)
	calll	clap_store_post
	movl	$26, 16(%esp)
	movl	$32, 12(%esp)
	movl	$0, 8(%esp)
	movl	$y, 4(%esp)
	movl	$4, (%esp)
	calll	clap_load_pre
	.loc	1 44 3                  # /home/naling/src/examples/tso/regression-examples/mix004/mix004.c:44:3
	movl	y, %esi
	movl	$26, 16(%esp)
	movl	$32, 12(%esp)
	movl	$0, 8(%esp)
	movl	$y, 4(%esp)
	movl	$4, (%esp)
	calll	clap_load_post
	movl	%esi, 32(%esp)
	.loc	1 45 3                  # /home/naling/src/examples/tso/regression-examples/mix004/mix004.c:45:3
	movl	%esi, 4(%esp)
	movl	$.L.str1, (%esp)
	calll	printf
	.loc	1 46 3                  # /home/naling/src/examples/tso/regression-examples/mix004/mix004.c:46:3
	cmpl	$0, 32(%esp)
	sete	%al
	movzbl	%al, %eax
	addl	$40, %esp
	popl	%esi
	ret
.Ltmp17:
.Ltmp18:
	.size	P1, .Ltmp18-P1
.Lfunc_end1:
.Ltmp19:
	.cfi_endproc
.Leh_func_end1:

	.globl	P2
	.align	16, 0x90
	.type	P2,@function
P2:                                     # @P2
.Ltmp22:
	.cfi_startproc
.Lfunc_begin2:
	.loc	1 50 0                  # /home/naling/src/examples/tso/regression-examples/mix004/mix004.c:50:0
# BB#0:                                 # %entry
	pushl	%esi
.Ltmp23:
	.cfi_def_cfa_offset 8
	subl	$40, %esp
.Ltmp24:
	.cfi_def_cfa_offset 48
.Ltmp25:
	.cfi_offset %esi, -8
	movl	48(%esp), %eax
	movl	%eax, 36(%esp)
	movl	$42, 20(%esp)
	movl	$32, 16(%esp)
	movl	$0, 12(%esp)
	movl	$1, 8(%esp)
	movl	$y, 4(%esp)
	movl	$5, (%esp)
	calll	clap_store_pre
	.loc	1 52 3 prologue_end     # /home/naling/src/examples/tso/regression-examples/mix004/mix004.c:52:3
.Ltmp26:
	movl	$1, y
	movl	$42, 20(%esp)
	movl	$32, 16(%esp)
	movl	$0, 12(%esp)
	movl	$1, 8(%esp)
	movl	$y, 4(%esp)
	movl	$5, (%esp)
	calll	clap_store_post
	movl	$43, 16(%esp)
	movl	$32, 12(%esp)
	movl	$0, 8(%esp)
	movl	$y, 4(%esp)
	movl	$4, (%esp)
	calll	clap_load_pre
	.loc	1 53 3                  # /home/naling/src/examples/tso/regression-examples/mix004/mix004.c:53:3
	movl	y, %esi
	movl	$43, 16(%esp)
	movl	$32, 12(%esp)
	movl	$0, 8(%esp)
	movl	$y, 4(%esp)
	movl	$4, (%esp)
	calll	clap_load_post
	movl	%esi, 32(%esp)
	movl	$45, 16(%esp)
	movl	$32, 12(%esp)
	movl	$0, 8(%esp)
	movl	$z, 4(%esp)
	movl	$4, (%esp)
	calll	clap_load_pre
	.loc	1 54 3                  # /home/naling/src/examples/tso/regression-examples/mix004/mix004.c:54:3
	movl	z, %esi
	movl	$45, 16(%esp)
	movl	$32, 12(%esp)
	movl	$0, 8(%esp)
	movl	$z, 4(%esp)
	movl	$4, (%esp)
	calll	clap_load_post
	movl	%esi, 28(%esp)
	.loc	1 55 3                  # /home/naling/src/examples/tso/regression-examples/mix004/mix004.c:55:3
	movl	32(%esp), %eax
	movl	%esi, 8(%esp)
	movl	%eax, 4(%esp)
	movl	$.L.str2, (%esp)
	calll	printf
	xorb	%al, %al
	.loc	1 56 3                  # /home/naling/src/examples/tso/regression-examples/mix004/mix004.c:56:3
	cmpl	$1, 32(%esp)
	jne	.LBB2_2
# BB#1:                                 # %land.rhs
	cmpl	$0, 28(%esp)
	sete	%al
.Ltmp27:
.LBB2_2:                                # %land.end
	movzbl	%al, %eax
	.loc	1 57 1                  # /home/naling/src/examples/tso/regression-examples/mix004/mix004.c:57:1
	addl	$40, %esp
	popl	%esi
	ret
.Ltmp28:
.Ltmp29:
	.size	P2, .Ltmp29-P2
.Lfunc_end2:
.Ltmp30:
	.cfi_endproc
.Leh_func_end2:

	.globl	P3
	.align	16, 0x90
	.type	P3,@function
P3:                                     # @P3
.Ltmp33:
	.cfi_startproc
.Lfunc_begin3:
	.loc	1 60 0                  # /home/naling/src/examples/tso/regression-examples/mix004/mix004.c:60:0
# BB#0:                                 # %entry
	pushl	%esi
.Ltmp34:
	.cfi_def_cfa_offset 8
	subl	$40, %esp
.Ltmp35:
	.cfi_def_cfa_offset 48
.Ltmp36:
	.cfi_offset %esi, -8
	movl	48(%esp), %eax
	movl	%eax, 36(%esp)
	movl	$67, 20(%esp)
	movl	$32, 16(%esp)
	movl	$0, 12(%esp)
	movl	$1, 8(%esp)
	movl	$z, 4(%esp)
	movl	$5, (%esp)
	calll	clap_store_pre
	.loc	1 62 3 prologue_end     # /home/naling/src/examples/tso/regression-examples/mix004/mix004.c:62:3
.Ltmp37:
	movl	$1, z
	movl	$67, 20(%esp)
	movl	$32, 16(%esp)
	movl	$0, 12(%esp)
	movl	$1, 8(%esp)
	movl	$z, 4(%esp)
	movl	$5, (%esp)
	calll	clap_store_post
	movl	$68, 16(%esp)
	movl	$32, 12(%esp)
	movl	$0, 8(%esp)
	movl	$z, 4(%esp)
	movl	$4, (%esp)
	calll	clap_load_pre
	.loc	1 63 3                  # /home/naling/src/examples/tso/regression-examples/mix004/mix004.c:63:3
	movl	z, %esi
	movl	$68, 16(%esp)
	movl	$32, 12(%esp)
	movl	$0, 8(%esp)
	movl	$z, 4(%esp)
	movl	$4, (%esp)
	calll	clap_load_post
	movl	%esi, 32(%esp)
	movl	$70, 16(%esp)
	movl	$32, 12(%esp)
	movl	$0, 8(%esp)
	movl	$a, 4(%esp)
	movl	$4, (%esp)
	calll	clap_load_pre
	.loc	1 64 3                  # /home/naling/src/examples/tso/regression-examples/mix004/mix004.c:64:3
	movl	a, %esi
	movl	$70, 16(%esp)
	movl	$32, 12(%esp)
	movl	$0, 8(%esp)
	movl	$a, 4(%esp)
	movl	$4, (%esp)
	calll	clap_load_post
	movl	%esi, 28(%esp)
	.loc	1 65 3                  # /home/naling/src/examples/tso/regression-examples/mix004/mix004.c:65:3
	movl	32(%esp), %eax
	movl	%esi, 8(%esp)
	movl	%eax, 4(%esp)
	movl	$.L.str3, (%esp)
	calll	printf
	xorb	%al, %al
	.loc	1 66 3                  # /home/naling/src/examples/tso/regression-examples/mix004/mix004.c:66:3
	cmpl	$1, 32(%esp)
	jne	.LBB3_2
# BB#1:                                 # %land.rhs
	cmpl	$0, 28(%esp)
	sete	%al
.Ltmp38:
.LBB3_2:                                # %land.end
	movzbl	%al, %eax
	.loc	1 67 1                  # /home/naling/src/examples/tso/regression-examples/mix004/mix004.c:67:1
	addl	$40, %esp
	popl	%esi
	ret
.Ltmp39:
.Ltmp40:
	.size	P3, .Ltmp40-P3
.Lfunc_end3:
.Ltmp41:
	.cfi_endproc
.Leh_func_end3:

	.globl	main
	.align	16, 0x90
	.type	main,@function
main:                                   # @main
.Ltmp43:
	.cfi_startproc
.Lfunc_begin4:
	.loc	1 70 0                  # /home/naling/src/examples/tso/regression-examples/mix004/mix004.c:70:0
# BB#0:                                 # %entry
	subl	$60, %esp
.Ltmp44:
	.cfi_def_cfa_offset 64
	movl	$0, 56(%esp)
	leal	52(%esp), %eax
	.loc	1 74 3 prologue_end     # /home/naling/src/examples/tso/regression-examples/mix004/mix004.c:74:3
.Ltmp45:
	movl	%eax, (%esp)
	movl	$0, 12(%esp)
	movl	$P0, 8(%esp)
	movl	$0, 4(%esp)
	calll	clap_thread_create
	leal	48(%esp), %eax
	.loc	1 75 3                  # /home/naling/src/examples/tso/regression-examples/mix004/mix004.c:75:3
	movl	%eax, (%esp)
	movl	$0, 12(%esp)
	movl	$P1, 8(%esp)
	movl	$0, 4(%esp)
	calll	clap_thread_create
	leal	44(%esp), %eax
	.loc	1 76 3                  # /home/naling/src/examples/tso/regression-examples/mix004/mix004.c:76:3
	movl	%eax, (%esp)
	movl	$0, 12(%esp)
	movl	$P2, 8(%esp)
	movl	$0, 4(%esp)
	calll	clap_thread_create
	leal	40(%esp), %eax
	.loc	1 77 3                  # /home/naling/src/examples/tso/regression-examples/mix004/mix004.c:77:3
	movl	%eax, (%esp)
	movl	$0, 12(%esp)
	movl	$P3, 8(%esp)
	movl	$0, 4(%esp)
	calll	clap_thread_create
	.loc	1 79 3                  # /home/naling/src/examples/tso/regression-examples/mix004/mix004.c:79:3
	movl	52(%esp), %eax
	leal	36(%esp), %ecx
	movl	%ecx, 4(%esp)
	movl	%eax, (%esp)
	calll	clap_thread_join
	.loc	1 80 3                  # /home/naling/src/examples/tso/regression-examples/mix004/mix004.c:80:3
	movl	48(%esp), %eax
	leal	32(%esp), %ecx
	movl	%ecx, 4(%esp)
	movl	%eax, (%esp)
	calll	clap_thread_join
	.loc	1 81 3                  # /home/naling/src/examples/tso/regression-examples/mix004/mix004.c:81:3
	movl	44(%esp), %eax
	leal	28(%esp), %ecx
	movl	%ecx, 4(%esp)
	movl	%eax, (%esp)
	calll	clap_thread_join
	.loc	1 82 3                  # /home/naling/src/examples/tso/regression-examples/mix004/mix004.c:82:3
	movl	40(%esp), %eax
	leal	24(%esp), %ecx
	movl	%ecx, 4(%esp)
	movl	%eax, (%esp)
	calll	clap_thread_join
	.loc	1 85 3                  # /home/naling/src/examples/tso/regression-examples/mix004/mix004.c:85:3
	cmpl	$0, 36(%esp)
	je	.LBB4_5
# BB#1:                                 # %land.lhs.true
	cmpl	$0, 32(%esp)
	je	.LBB4_5
# BB#2:                                 # %land.lhs.true9
	cmpl	$0, 28(%esp)
	je	.LBB4_5
# BB#3:                                 # %land.lhs.true11
	cmpl	$0, 24(%esp)
	je	.LBB4_5
# BB#4:                                 # %if.then
	.loc	1 86 5                  # /home/naling/src/examples/tso/regression-examples/mix004/mix004.c:86:5
.Ltmp46:
	movl	$.L.str4, (%esp)
	calll	printf
	.loc	1 87 5                  # /home/naling/src/examples/tso/regression-examples/mix004/mix004.c:87:5
	movl	$.L.str5, (%esp)
	calll	printf
.Ltmp47:
.LBB4_5:                                # %if.end
	xorl	%eax, %eax
	.loc	1 90 3                  # /home/naling/src/examples/tso/regression-examples/mix004/mix004.c:90:3
	addl	$60, %esp
	ret
.Ltmp48:
.Ltmp49:
	.size	main, .Ltmp49-main
.Lfunc_end4:
.Ltmp50:
	.cfi_endproc
.Leh_func_end4:

	.type	a,@object               # @a
	.comm	a,4,4
	.type	x,@object               # @x
	.comm	x,4,4
	.type	.L.str,@object          # @.str
	.section	.rodata.str1.1,"aMS",@progbits,1
.L.str:
	.asciz	 "\n %%%% (EAX0=%d) %%%%\n"
	.size	.L.str, 23

	.type	y,@object               # @y
	.comm	y,4,4
	.type	.L.str1,@object         # @.str1
.L.str1:
	.asciz	 "\n %%%% (EAX1=%d) %%%%\n"
	.size	.L.str1, 23

	.type	z,@object               # @z
	.comm	z,4,4
	.type	.L.str2,@object         # @.str2
.L.str2:
	.asciz	 "\n %%%% (EAX2=%d, EBX2=%d) %%%%\n"
	.size	.L.str2, 32

	.type	.L.str3,@object         # @.str3
.L.str3:
	.asciz	 "\n %%%% (EAX3=%d, EBX3=%d) %%%%\n"
	.size	.L.str3, 32

	.type	.L.str4,@object         # @.str4
.L.str4:
	.asciz	 "\n@@@CLAP: There is a SC violation! \n"
	.size	.L.str4, 37

	.type	.L.str5,@object         # @.str5
.L.str5:
	.asciz	 "\033[1;31m SC Violation!!! \033[0m\n"
	.size	.L.str5, 30

	.cfi_sections .debug_frame
	.text
.Ltext_end:
	.data
.Ldata_end:
	.text
.Lsection_end1:
	.section	".note.GNU-stack","",@progbits
