	.file	"/home/naling/src/examples/tso/regression-examples/rfi000/rfi000.c.lz.opt.bc"
	.file	1 "/home/naling/src/examples/tso/regression-examples/rfi000/rfi000.c"
	.text
.Ltext_begin:
	.data
	.text
	.globl	P0
	.align	16, 0x90
	.type	P0,@function
P0:                                     # @P0
.Ltmp1:
	.cfi_startproc
.Lfunc_begin0:
	.loc	1 26 0                  # /home/naling/src/examples/tso/regression-examples/rfi000/rfi000.c:26:0
# BB#0:                                 # %entry
	subl	$28, %esp
.Ltmp2:
	.cfi_def_cfa_offset 32
	movl	$3, 20(%esp)
	movl	$32, 16(%esp)
	movl	$0, 12(%esp)
	movl	$2, 8(%esp)
	movl	$y, 4(%esp)
	movl	$5, (%esp)
	calll	clap_store_pre
	.loc	1 28 4 prologue_end     # /home/naling/src/examples/tso/regression-examples/rfi000/rfi000.c:28:4
.Ltmp3:
	movl	$2, y
	movl	$3, 20(%esp)
	movl	$32, 16(%esp)
	movl	$0, 12(%esp)
	movl	$2, 8(%esp)
	movl	$y, 4(%esp)
	movl	$5, (%esp)
	calll	clap_store_post
	movl	$4, 20(%esp)
	movl	$32, 16(%esp)
	movl	$0, 12(%esp)
	movl	$1, 8(%esp)
	movl	$x, 4(%esp)
	movl	$5, (%esp)
	calll	clap_store_pre
	.loc	1 29 4                  # /home/naling/src/examples/tso/regression-examples/rfi000/rfi000.c:29:4
	movl	$1, x
	movl	$4, 20(%esp)
	movl	$32, 16(%esp)
	movl	$0, 12(%esp)
	movl	$1, 8(%esp)
	movl	$x, 4(%esp)
	movl	$5, (%esp)
	calll	clap_store_post
	xorl	%eax, %eax
	.loc	1 31 4                  # /home/naling/src/examples/tso/regression-examples/rfi000/rfi000.c:31:4
	addl	$28, %esp
	ret
.Ltmp4:
.Ltmp5:
	.size	P0, .Ltmp5-P0
.Lfunc_end0:
.Ltmp6:
	.cfi_endproc
.Leh_func_end0:

	.globl	P1
	.align	16, 0x90
	.type	P1,@function
P1:                                     # @P1
.Ltmp11:
	.cfi_startproc
.Lfunc_begin1:
	.loc	1 34 0                  # /home/naling/src/examples/tso/regression-examples/rfi000/rfi000.c:34:0
# BB#0:                                 # %entry
	.loc	1 42 15 prologue_end    # /home/naling/src/examples/tso/regression-examples/rfi000/rfi000.c:42:15
	pushl	%ebx
.Ltmp12:
	.cfi_def_cfa_offset 8
	pushl	%edi
.Ltmp13:
	.cfi_def_cfa_offset 12
	pushl	%esi
.Ltmp14:
	.cfi_def_cfa_offset 16
	subl	$48, %esp
.Ltmp15:
	.cfi_def_cfa_offset 64
.Ltmp16:
	.cfi_offset %esi, -16
.Ltmp17:
	.cfi_offset %edi, -12
.Ltmp18:
	.cfi_offset %ebx, -8
	movl	$8, (%esp)
	calll	malloc
	movl	%eax, 36(%esp)
	movl	$15, 20(%esp)
	movl	$32, 16(%esp)
	movl	$0, 12(%esp)
	movl	$2, 8(%esp)
	movl	$x, 4(%esp)
	movl	$5, (%esp)
	calll	clap_store_pre
	.loc	1 44 5                  # /home/naling/src/examples/tso/regression-examples/rfi000/rfi000.c:44:5
	movl	$2, x
	movl	$15, 20(%esp)
	movl	$32, 16(%esp)
	movl	$0, 12(%esp)
	movl	$2, 8(%esp)
	movl	$x, 4(%esp)
	movl	$5, (%esp)
	calll	clap_store_post
	movl	$16, 20(%esp)
	movl	$32, 16(%esp)
	movl	$0, 12(%esp)
	movl	$1, 8(%esp)
	movl	$y, 4(%esp)
	movl	$5, (%esp)
	calll	clap_store_pre
	.loc	1 45 5                  # /home/naling/src/examples/tso/regression-examples/rfi000/rfi000.c:45:5
	movl	$1, y
	movl	$16, 20(%esp)
	movl	$32, 16(%esp)
	movl	$0, 12(%esp)
	movl	$1, 8(%esp)
	movl	$y, 4(%esp)
	movl	$5, (%esp)
	calll	clap_store_post
	movl	$17, 16(%esp)
	movl	$32, 12(%esp)
	movl	$0, 8(%esp)
	movl	$y, 4(%esp)
	movl	$4, (%esp)
	calll	clap_load_pre
	.loc	1 47 5                  # /home/naling/src/examples/tso/regression-examples/rfi000/rfi000.c:47:5
	movl	y, %esi
	movl	$17, 16(%esp)
	movl	$32, 12(%esp)
	movl	$0, 8(%esp)
	movl	$y, 4(%esp)
	movl	$4, (%esp)
	calll	clap_load_post
	movl	36(%esp), %edi
	movl	%esi, 8(%esp)
	movl	%edi, 4(%esp)
	movl	$20, 20(%esp)
	movl	$32, 16(%esp)
	movl	$0, 12(%esp)
	movl	$5, (%esp)
	calll	clap_store_pre
	movl	%esi, (%edi)
	movl	%esi, 8(%esp)
	movl	%edi, 4(%esp)
	movl	$20, 20(%esp)
	movl	$32, 16(%esp)
	movl	$0, 12(%esp)
	movl	$5, (%esp)
	calll	clap_store_post
	movl	$21, 16(%esp)
	movl	$32, 12(%esp)
	movl	$0, 8(%esp)
	movl	$y, 4(%esp)
	movl	$4, (%esp)
	calll	clap_load_pre
	.loc	1 48 5                  # /home/naling/src/examples/tso/regression-examples/rfi000/rfi000.c:48:5
	movl	y, %esi
	movl	$21, 16(%esp)
	movl	$32, 12(%esp)
	movl	$0, 8(%esp)
	movl	$y, 4(%esp)
	movl	$4, (%esp)
	calll	clap_load_post
	movl	36(%esp), %ebx
	movl	%esi, 8(%esp)
	leal	4(%ebx), %edi
	movl	%edi, 4(%esp)
	movl	$24, 20(%esp)
	movl	$32, 16(%esp)
	movl	$0, 12(%esp)
	movl	$5, (%esp)
	calll	clap_store_pre
	movl	%esi, 4(%ebx)
	movl	%esi, 8(%esp)
	movl	%edi, 4(%esp)
	movl	$24, 20(%esp)
	movl	$32, 16(%esp)
	movl	$0, 12(%esp)
	movl	$5, (%esp)
	calll	clap_store_post
	.loc	1 50 5                  # /home/naling/src/examples/tso/regression-examples/rfi000/rfi000.c:50:5
	movl	36(%esp), %eax
	addl	$48, %esp
	popl	%esi
	popl	%edi
	popl	%ebx
	ret
.Ltmp19:
.Ltmp20:
	.size	P1, .Ltmp20-P1
.Lfunc_end1:
.Ltmp21:
	.cfi_endproc
.Leh_func_end1:

	.globl	main
	.align	16, 0x90
	.type	main,@function
main:                                   # @main
.Ltmp25:
	.cfi_startproc
.Lfunc_begin2:
	.loc	1 55 0                  # /home/naling/src/examples/tso/regression-examples/rfi000/rfi000.c:55:0
# BB#0:                                 # %entry
	pushl	%edi
.Ltmp26:
	.cfi_def_cfa_offset 8
	pushl	%esi
.Ltmp27:
	.cfi_def_cfa_offset 12
	subl	$52, %esp
.Ltmp28:
	.cfi_def_cfa_offset 64
.Ltmp29:
	.cfi_offset %esi, -12
.Ltmp30:
	.cfi_offset %edi, -8
	movl	$0, 48(%esp)
	leal	44(%esp), %eax
	.loc	1 66 5 prologue_end     # /home/naling/src/examples/tso/regression-examples/rfi000/rfi000.c:66:5
.Ltmp31:
	movl	%eax, (%esp)
	movl	$0, 12(%esp)
	movl	$P0, 8(%esp)
	movl	$0, 4(%esp)
	calll	clap_thread_create
	leal	40(%esp), %eax
	.loc	1 67 5                  # /home/naling/src/examples/tso/regression-examples/rfi000/rfi000.c:67:5
	movl	%eax, (%esp)
	movl	$0, 12(%esp)
	movl	$P1, 8(%esp)
	movl	$0, 4(%esp)
	calll	clap_thread_create
	.loc	1 71 5                  # /home/naling/src/examples/tso/regression-examples/rfi000/rfi000.c:71:5
	movl	44(%esp), %eax
	movl	%eax, (%esp)
	movl	$0, 4(%esp)
	calll	clap_thread_join
	.loc	1 72 5                  # /home/naling/src/examples/tso/regression-examples/rfi000/rfi000.c:72:5
	movl	40(%esp), %eax
	leal	28(%esp), %ecx
	movl	%ecx, 4(%esp)
	movl	%eax, (%esp)
	calll	clap_thread_join
	.loc	1 74 5                  # /home/naling/src/examples/tso/regression-examples/rfi000/rfi000.c:74:5
	movl	28(%esp), %esi
	movl	%esi, 4(%esp)
	movl	$49, 16(%esp)
	movl	$32, 12(%esp)
	movl	$0, 8(%esp)
	movl	$4, (%esp)
	calll	clap_load_pre
	movl	(%esi), %edi
	movl	%esi, 4(%esp)
	movl	$49, 16(%esp)
	movl	$32, 12(%esp)
	movl	$0, 8(%esp)
	movl	$4, (%esp)
	calll	clap_load_post
	movl	%edi, 36(%esp)
	.loc	1 75 5                  # /home/naling/src/examples/tso/regression-examples/rfi000/rfi000.c:75:5
	movl	28(%esp), %edi
	leal	4(%edi), %esi
	movl	%esi, 4(%esp)
	movl	$53, 16(%esp)
	movl	$32, 12(%esp)
	movl	$0, 8(%esp)
	movl	$4, (%esp)
	calll	clap_load_pre
	movl	4(%edi), %edi
	movl	%esi, 4(%esp)
	movl	$53, 16(%esp)
	movl	$32, 12(%esp)
	movl	$0, 8(%esp)
	movl	$4, (%esp)
	calll	clap_load_post
	movl	%edi, 32(%esp)
	movl	$55, 16(%esp)
	movl	$32, 12(%esp)
	movl	$0, 8(%esp)
	movl	$x, 4(%esp)
	movl	$4, (%esp)
	calll	clap_load_pre
	.loc	1 76 5                  # /home/naling/src/examples/tso/regression-examples/rfi000/rfi000.c:76:5
	movl	x, %esi
	movl	$55, 16(%esp)
	movl	$32, 12(%esp)
	movl	$0, 8(%esp)
	movl	$x, 4(%esp)
	movl	$4, (%esp)
	calll	clap_load_post
	cmpl	$2, %esi
	jne	.LBB2_5
# BB#1:                                 # %land.lhs.true
	movl	$58, 16(%esp)
	movl	$32, 12(%esp)
	movl	$0, 8(%esp)
	movl	$y, 4(%esp)
	movl	$4, (%esp)
	calll	clap_load_pre
	movl	y, %esi
	movl	$58, 16(%esp)
	movl	$32, 12(%esp)
	movl	$0, 8(%esp)
	movl	$y, 4(%esp)
	movl	$4, (%esp)
	calll	clap_load_post
	cmpl	$2, %esi
	jne	.LBB2_5
# BB#2:                                 # %land.lhs.true5
	cmpl	$1, 36(%esp)
	jne	.LBB2_5
# BB#3:                                 # %land.lhs.true7
	cmpl	$1, 32(%esp)
	jne	.LBB2_5
# BB#4:                                 # %if.then
	.loc	1 77 3                  # /home/naling/src/examples/tso/regression-examples/rfi000/rfi000.c:77:3
.Ltmp32:
	movl	$.L.str, (%esp)
	calll	printf
	.loc	1 78 3                  # /home/naling/src/examples/tso/regression-examples/rfi000/rfi000.c:78:3
	movl	$.L.str1, (%esp)
	calll	printf
.Ltmp33:
.LBB2_5:                                # %if.end
	.loc	1 80 5                  # /home/naling/src/examples/tso/regression-examples/rfi000/rfi000.c:80:5
	movl	36(%esp), %eax
	movl	32(%esp), %ecx
	movl	%ecx, 8(%esp)
	movl	%eax, 4(%esp)
	movl	$.L.str2, (%esp)
	calll	printf
	xorl	%eax, %eax
	.loc	1 81 5                  # /home/naling/src/examples/tso/regression-examples/rfi000/rfi000.c:81:5
	addl	$52, %esp
	popl	%esi
	popl	%edi
	ret
.Ltmp34:
.Ltmp35:
	.size	main, .Ltmp35-main
.Lfunc_end2:
.Ltmp36:
	.cfi_endproc
.Leh_func_end2:

	.type	y,@object               # @y
	.comm	y,4,4
	.type	x,@object               # @x
	.comm	x,4,4
	.type	.L.str,@object          # @.str
	.section	.rodata.str1.1,"aMS",@progbits,1
.L.str:
	.asciz	 "@@@CLAP: There is a SC violation! \n"
	.size	.L.str, 36

	.type	.L.str1,@object         # @.str1
.L.str1:
	.asciz	 "\033[1;31m  SC Violation!!!  \033[0m\n"
	.size	.L.str1, 32

	.type	.L.str2,@object         # @.str2
.L.str2:
	.asciz	 "\n%%%%%%%% EAX0=%ld, EBX=%ld,  %%%%%%%% \n"
	.size	.L.str2, 41

	.cfi_sections .debug_frame
	.text
.Ltext_end:
	.data
.Ldata_end:
	.text
.Lsection_end1:
	.section	".note.GNU-stack","",@progbits
