	.file	"/home/naling/src/examples/tso/regression-examples/pgsql_two_fix/pgsql_two_fix.c.lz.opt.bc"
	.file	1 "/home/naling/src/examples/tso/regression-examples/pgsql_two_fix/pgsql_two_fix.c"
	.text
.Ltext_begin:
	.data
	.text
	.globl	MFENCE
	.align	16, 0x90
	.type	MFENCE,@function
MFENCE:                                 # @MFENCE
.Ltmp1:
	.cfi_startproc
.Lfunc_begin0:
	.loc	1 24 0                  # /home/naling/src/examples/tso/regression-examples/pgsql_two_fix/pgsql_two_fix.c:24:0
# BB#0:                                 # %entry
	subl	$28, %esp
.Ltmp2:
	.cfi_def_cfa_offset 32
	movl	$1, 20(%esp)
	movl	$32, 16(%esp)
	movl	$7, 12(%esp)
	movl	$0, 8(%esp)
	movl	$dummy, 4(%esp)
	movl	$5, (%esp)
	calll	clap_atomicrmw_pre
	.loc	1 24 16 prologue_end    # /home/naling/src/examples/tso/regression-examples/pgsql_two_fix/pgsql_two_fix.c:24:16
.Ltmp3:
	lock
	addl	$0, dummy
	movl	$1, 20(%esp)
	movl	$32, 16(%esp)
	movl	$7, 12(%esp)
	movl	$0, 8(%esp)
	movl	$dummy, 4(%esp)
	movl	$5, (%esp)
	calll	clap_atomicrmw_post
	.loc	1 24 48                 # /home/naling/src/examples/tso/regression-examples/pgsql_two_fix/pgsql_two_fix.c:24:48
	addl	$28, %esp
	ret
.Ltmp4:
.Ltmp5:
	.size	MFENCE, .Ltmp5-MFENCE
.Lfunc_end0:
.Ltmp6:
	.cfi_endproc
.Leh_func_end0:

	.globl	worker_1
	.align	16, 0x90
	.type	worker_1,@function
worker_1:                               # @worker_1
.Ltmp9:
	.cfi_startproc
.Lfunc_begin1:
	.loc	1 53 0                  # /home/naling/src/examples/tso/regression-examples/pgsql_two_fix/pgsql_two_fix.c:53:0
# BB#0:                                 # %entry
	pushl	%esi
.Ltmp10:
	.cfi_def_cfa_offset 8
	subl	$56, %esp
.Ltmp11:
	.cfi_def_cfa_offset 64
.Ltmp12:
	.cfi_offset %esi, -8
	movl	64(%esp), %eax
	movl	%eax, 48(%esp)
	.loc	1 55 13 prologue_end    # /home/naling/src/examples/tso/regression-examples/pgsql_two_fix/pgsql_two_fix.c:55:13
.Ltmp13:
	movl	$0, 44(%esp)
	.loc	1 55 27                 # /home/naling/src/examples/tso/regression-examples/pgsql_two_fix/pgsql_two_fix.c:55:27
	movl	$0, 40(%esp)
	movl	$0, 36(%esp)
	.align	16, 0x90
.LBB1_1:                                # %while.cond
                                        # =>This Inner Loop Header: Depth=1
	movl	$18, 16(%esp)
	movl	$32, 12(%esp)
	movl	$0, 8(%esp)
	movl	$latch1, 4(%esp)
	movl	$4, (%esp)
	calll	clap_load_pre
	.loc	1 58 2                  # /home/naling/src/examples/tso/regression-examples/pgsql_two_fix/pgsql_two_fix.c:58:2
.Ltmp14:
	movl	latch1, %esi
	movl	$18, 16(%esp)
	movl	$32, 12(%esp)
	movl	$0, 8(%esp)
	movl	$latch1, 4(%esp)
	movl	$4, (%esp)
	calll	clap_load_post
	testl	%esi, %esi
	je	.LBB1_1
# BB#2:                                 # %while.end
                                        #   in Loop: Header=BB1_1 Depth=1
	movl	$23, 16(%esp)
	movl	$32, 12(%esp)
	movl	$0, 8(%esp)
	movl	$latch1, 4(%esp)
	movl	$4, (%esp)
	calll	clap_load_pre
	.loc	1 63 2                  # /home/naling/src/examples/tso/regression-examples/pgsql_two_fix/pgsql_two_fix.c:63:2
	movl	latch1, %esi
	movl	$23, 16(%esp)
	movl	$32, 12(%esp)
	movl	$0, 8(%esp)
	movl	$latch1, 4(%esp)
	movl	$4, (%esp)
	calll	clap_load_post
	testl	%esi, %esi
	je	.LBB1_5
# BB#3:                                 # %land.lhs.true
                                        #   in Loop: Header=BB1_1 Depth=1
	movl	$29, 16(%esp)
	movl	$32, 12(%esp)
	movl	$0, 8(%esp)
	movl	$flag1, 4(%esp)
	movl	$4, (%esp)
	calll	clap_load_pre
	movl	flag1, %esi
	movl	$29, 16(%esp)
	movl	$32, 12(%esp)
	movl	$0, 8(%esp)
	movl	$flag1, 4(%esp)
	movl	$4, (%esp)
	calll	clap_load_post
	testl	%esi, %esi
	je	.LBB1_4
.LBB1_5:                                # %if.end
                                        #   in Loop: Header=BB1_1 Depth=1
	movl	$35, 20(%esp)
	movl	$32, 16(%esp)
	movl	$0, 12(%esp)
	movl	$0, 8(%esp)
	movl	$latch1, 4(%esp)
	movl	$5, (%esp)
	calll	clap_store_pre
	.loc	1 64 2                  # /home/naling/src/examples/tso/regression-examples/pgsql_two_fix/pgsql_two_fix.c:64:2
	movl	$0, latch1
	movl	$35, 20(%esp)
	movl	$32, 16(%esp)
	movl	$0, 12(%esp)
	movl	$0, 8(%esp)
	movl	$latch1, 4(%esp)
	movl	$5, (%esp)
	calll	clap_store_post
	movl	$36, 16(%esp)
	movl	$32, 12(%esp)
	movl	$0, 8(%esp)
	movl	$flag1, 4(%esp)
	movl	$4, (%esp)
	calll	clap_load_pre
	.loc	1 65 2                  # /home/naling/src/examples/tso/regression-examples/pgsql_two_fix/pgsql_two_fix.c:65:2
	movl	flag1, %esi
	movl	$36, 16(%esp)
	movl	$32, 12(%esp)
	movl	$0, 8(%esp)
	movl	$flag1, 4(%esp)
	movl	$4, (%esp)
	calll	clap_load_post
	testl	%esi, %esi
	je	.LBB1_7
# BB#6:                                 # %if.then5
                                        #   in Loop: Header=BB1_1 Depth=1
	movl	$39, 20(%esp)
	movl	$32, 16(%esp)
	movl	$0, 12(%esp)
	movl	$0, 8(%esp)
	movl	$flag1, 4(%esp)
	movl	$5, (%esp)
	calll	clap_store_pre
	.loc	1 67 6                  # /home/naling/src/examples/tso/regression-examples/pgsql_two_fix/pgsql_two_fix.c:67:6
.Ltmp15:
	movl	$0, flag1
	movl	$39, 20(%esp)
	movl	$32, 16(%esp)
	movl	$0, 12(%esp)
	movl	$0, 8(%esp)
	movl	$flag1, 4(%esp)
	movl	$5, (%esp)
	calll	clap_store_post
	movl	$40, 20(%esp)
	movl	$32, 16(%esp)
	movl	$0, 12(%esp)
	movl	$1, 8(%esp)
	movl	$flag2, 4(%esp)
	movl	$5, (%esp)
	calll	clap_store_pre
	.loc	1 68 6                  # /home/naling/src/examples/tso/regression-examples/pgsql_two_fix/pgsql_two_fix.c:68:6
	movl	$1, flag2
	movl	$40, 20(%esp)
	movl	$32, 16(%esp)
	movl	$0, 12(%esp)
	movl	$1, 8(%esp)
	movl	$flag2, 4(%esp)
	movl	$5, (%esp)
	calll	clap_store_post
	movl	$41, 20(%esp)
	movl	$32, 16(%esp)
	movl	$0, 12(%esp)
	movl	$1, 8(%esp)
	movl	$latch2, 4(%esp)
	movl	$5, (%esp)
	calll	clap_store_pre
	.loc	1 69 6                  # /home/naling/src/examples/tso/regression-examples/pgsql_two_fix/pgsql_two_fix.c:69:6
	movl	$1, latch2
	movl	$41, 20(%esp)
	movl	$32, 16(%esp)
	movl	$0, 12(%esp)
	movl	$1, 8(%esp)
	movl	$latch2, 4(%esp)
	movl	$5, (%esp)
	calll	clap_store_post
.Ltmp16:
.LBB1_7:                                # %if.end6
                                        #   in Loop: Header=BB1_1 Depth=1
	.loc	1 72 2                  # /home/naling/src/examples/tso/regression-examples/pgsql_two_fix/pgsql_two_fix.c:72:2
	movl	40(%esp), %eax
	leal	1(%eax), %ecx
	movl	%ecx, 40(%esp)
	testl	%eax, %eax
	jle	.LBB1_1
.Ltmp17:
.LBB1_8:                                # %for.end
	.loc	1 75 1                  # /home/naling/src/examples/tso/regression-examples/pgsql_two_fix/pgsql_two_fix.c:75:1
	movl	52(%esp), %eax
	addl	$56, %esp
	popl	%esi
	ret
.LBB1_4:                                # %if.then
	.loc	1 63 30                 # /home/naling/src/examples/tso/regression-examples/pgsql_two_fix/pgsql_two_fix.c:63:30
.Ltmp18:
	movl	$.L.str, (%esp)
	calll	printf
	.loc	1 63 49                 # /home/naling/src/examples/tso/regression-examples/pgsql_two_fix/pgsql_two_fix.c:63:49
	movl	$0, 52(%esp)
	jmp	.LBB1_8
.Ltmp19:
.Ltmp20:
	.size	worker_1, .Ltmp20-worker_1
.Lfunc_end1:
.Ltmp21:
	.cfi_endproc
.Leh_func_end1:

	.globl	worker_2
	.align	16, 0x90
	.type	worker_2,@function
worker_2:                               # @worker_2
.Ltmp25:
	.cfi_startproc
.Lfunc_begin2:
	.loc	1 78 0                  # /home/naling/src/examples/tso/regression-examples/pgsql_two_fix/pgsql_two_fix.c:78:0
# BB#0:                                 # %entry
	pushl	%edi
.Ltmp26:
	.cfi_def_cfa_offset 8
	pushl	%esi
.Ltmp27:
	.cfi_def_cfa_offset 12
	subl	$52, %esp
.Ltmp28:
	.cfi_def_cfa_offset 64
.Ltmp29:
	.cfi_offset %esi, -12
.Ltmp30:
	.cfi_offset %edi, -8
	movl	64(%esp), %eax
	movl	%eax, 44(%esp)
	.loc	1 80 13 prologue_end    # /home/naling/src/examples/tso/regression-examples/pgsql_two_fix/pgsql_two_fix.c:80:13
.Ltmp31:
	movl	$0, 40(%esp)
	.loc	1 80 27                 # /home/naling/src/examples/tso/regression-examples/pgsql_two_fix/pgsql_two_fix.c:80:27
	movl	$0, 36(%esp)
	movl	$0, 32(%esp)
	.align	16, 0x90
.LBB2_1:                                # %while.cond
                                        # =>This Inner Loop Header: Depth=1
	movl	$67, 16(%esp)
	movl	$32, 12(%esp)
	movl	$0, 8(%esp)
	movl	$latch2, 4(%esp)
	movl	$4, (%esp)
	calll	clap_load_pre
	.loc	1 83 2                  # /home/naling/src/examples/tso/regression-examples/pgsql_two_fix/pgsql_two_fix.c:83:2
.Ltmp32:
	movl	latch2, %esi
	movl	$67, 16(%esp)
	movl	$32, 12(%esp)
	movl	$0, 8(%esp)
	movl	$latch2, 4(%esp)
	movl	$4, (%esp)
	calll	clap_load_post
	testl	%esi, %esi
	je	.LBB2_1
# BB#2:                                 # %while.end
                                        #   in Loop: Header=BB2_1 Depth=1
	movl	$72, 16(%esp)
	movl	$32, 12(%esp)
	movl	$0, 8(%esp)
	movl	$latch2, 4(%esp)
	movl	$4, (%esp)
	calll	clap_load_pre
	.loc	1 88 2                  # /home/naling/src/examples/tso/regression-examples/pgsql_two_fix/pgsql_two_fix.c:88:2
	movl	latch2, %esi
	movl	$72, 16(%esp)
	movl	$32, 12(%esp)
	movl	$0, 8(%esp)
	movl	$latch2, 4(%esp)
	movl	$4, (%esp)
	calll	clap_load_post
	testl	%esi, %esi
	je	.LBB2_5
# BB#3:                                 # %land.lhs.true
                                        #   in Loop: Header=BB2_1 Depth=1
	movl	$78, 16(%esp)
	movl	$32, 12(%esp)
	movl	$0, 8(%esp)
	movl	$flag2, 4(%esp)
	movl	$4, (%esp)
	calll	clap_load_pre
	movl	flag2, %esi
	movl	$78, 16(%esp)
	movl	$32, 12(%esp)
	movl	$0, 8(%esp)
	movl	$flag2, 4(%esp)
	movl	$4, (%esp)
	calll	clap_load_post
	testl	%esi, %esi
	je	.LBB2_4
.LBB2_5:                                # %if.end
                                        #   in Loop: Header=BB2_1 Depth=1
	movl	$84, 20(%esp)
	movl	$32, 16(%esp)
	movl	$0, 12(%esp)
	movl	$0, 8(%esp)
	movl	$latch2, 4(%esp)
	movl	$5, (%esp)
	calll	clap_store_pre
	.loc	1 89 2                  # /home/naling/src/examples/tso/regression-examples/pgsql_two_fix/pgsql_two_fix.c:89:2
	movl	$0, latch2
	movl	$84, 20(%esp)
	movl	$32, 16(%esp)
	movl	$0, 12(%esp)
	movl	$0, 8(%esp)
	movl	$latch2, 4(%esp)
	movl	$5, (%esp)
	calll	clap_store_post
	movl	$85, 16(%esp)
	movl	$32, 12(%esp)
	movl	$0, 8(%esp)
	movl	$latch2, 4(%esp)
	movl	$4, (%esp)
	calll	clap_load_pre
	.loc	1 91 2                  # /home/naling/src/examples/tso/regression-examples/pgsql_two_fix/pgsql_two_fix.c:91:2
	movl	latch2, %esi
	movl	$85, 16(%esp)
	movl	$32, 12(%esp)
	movl	$0, 8(%esp)
	movl	$latch2, 4(%esp)
	movl	$4, (%esp)
	calll	clap_load_post
	movl	$86, 16(%esp)
	movl	$32, 12(%esp)
	movl	$0, 8(%esp)
	movl	$latch2, 4(%esp)
	movl	$4, (%esp)
	calll	clap_load_pre
	movl	latch2, %edi
	movl	$86, 16(%esp)
	movl	$32, 12(%esp)
	movl	$0, 8(%esp)
	movl	$latch2, 4(%esp)
	movl	$4, (%esp)
	xorl	%esi, %edi
	calll	clap_load_post
	movl	%edi, 8(%esp)
	movl	$88, 20(%esp)
	movl	$32, 16(%esp)
	movl	$0, 12(%esp)
	movl	$__unbuffered_tmp2, 4(%esp)
	movl	$5, (%esp)
	calll	clap_store_pre
	movl	%edi, __unbuffered_tmp2
	movl	%edi, 8(%esp)
	movl	$88, 20(%esp)
	movl	$32, 16(%esp)
	movl	$0, 12(%esp)
	movl	$__unbuffered_tmp2, 4(%esp)
	movl	$5, (%esp)
	calll	clap_store_post
	movl	$89, 16(%esp)
	movl	$32, 12(%esp)
	movl	$0, 8(%esp)
	movl	$flag2, 4(%esp)
	movl	$4, (%esp)
	calll	clap_load_pre
	.loc	1 92 2                  # /home/naling/src/examples/tso/regression-examples/pgsql_two_fix/pgsql_two_fix.c:92:2
	movl	flag2, %esi
	movl	$89, 16(%esp)
	movl	$32, 12(%esp)
	movl	$0, 8(%esp)
	movl	$flag2, 4(%esp)
	movl	$4, (%esp)
	calll	clap_load_post
	movl	$90, 16(%esp)
	movl	$32, 12(%esp)
	movl	$0, 8(%esp)
	movl	$__unbuffered_tmp2, 4(%esp)
	movl	$4, (%esp)
	calll	clap_load_pre
	movl	__unbuffered_tmp2, %edi
	movl	$90, 16(%esp)
	movl	$32, 12(%esp)
	movl	$0, 8(%esp)
	movl	$__unbuffered_tmp2, 4(%esp)
	movl	$4, (%esp)
	calll	clap_load_post
	orl	%esi, %edi
	je	.LBB2_7
# BB#6:                                 # %if.then5
                                        #   in Loop: Header=BB2_1 Depth=1
	movl	$94, 20(%esp)
	movl	$32, 16(%esp)
	movl	$0, 12(%esp)
	movl	$0, 8(%esp)
	movl	$flag2, 4(%esp)
	movl	$5, (%esp)
	calll	clap_store_pre
	.loc	1 94 6                  # /home/naling/src/examples/tso/regression-examples/pgsql_two_fix/pgsql_two_fix.c:94:6
.Ltmp33:
	movl	$0, flag2
	movl	$94, 20(%esp)
	movl	$32, 16(%esp)
	movl	$0, 12(%esp)
	movl	$0, 8(%esp)
	movl	$flag2, 4(%esp)
	movl	$5, (%esp)
	calll	clap_store_post
	movl	$95, 20(%esp)
	movl	$32, 16(%esp)
	movl	$0, 12(%esp)
	movl	$1, 8(%esp)
	movl	$flag1, 4(%esp)
	movl	$5, (%esp)
	calll	clap_store_pre
	.loc	1 95 6                  # /home/naling/src/examples/tso/regression-examples/pgsql_two_fix/pgsql_two_fix.c:95:6
	movl	$1, flag1
	movl	$95, 20(%esp)
	movl	$32, 16(%esp)
	movl	$0, 12(%esp)
	movl	$1, 8(%esp)
	movl	$flag1, 4(%esp)
	movl	$5, (%esp)
	calll	clap_store_post
	.loc	1 97 6                  # /home/naling/src/examples/tso/regression-examples/pgsql_two_fix/pgsql_two_fix.c:97:6
	calll	MFENCE
	movl	$97, 20(%esp)
	movl	$32, 16(%esp)
	movl	$0, 12(%esp)
	movl	$1, 8(%esp)
	movl	$latch1, 4(%esp)
	movl	$5, (%esp)
	calll	clap_store_pre
	.loc	1 98 6                  # /home/naling/src/examples/tso/regression-examples/pgsql_two_fix/pgsql_two_fix.c:98:6
	movl	$1, latch1
	movl	$97, 20(%esp)
	movl	$32, 16(%esp)
	movl	$0, 12(%esp)
	movl	$1, 8(%esp)
	movl	$latch1, 4(%esp)
	movl	$5, (%esp)
	calll	clap_store_post
.Ltmp34:
.LBB2_7:                                # %if.end6
                                        #   in Loop: Header=BB2_1 Depth=1
	.loc	1 100 2                 # /home/naling/src/examples/tso/regression-examples/pgsql_two_fix/pgsql_two_fix.c:100:2
	movl	36(%esp), %eax
	leal	1(%eax), %ecx
	movl	%ecx, 36(%esp)
	testl	%eax, %eax
	jle	.LBB2_1
.Ltmp35:
.LBB2_8:                                # %for.end
	.loc	1 103 1                 # /home/naling/src/examples/tso/regression-examples/pgsql_two_fix/pgsql_two_fix.c:103:1
	movl	48(%esp), %eax
	addl	$52, %esp
	popl	%esi
	popl	%edi
	ret
.LBB2_4:                                # %if.then
	.loc	1 88 30                 # /home/naling/src/examples/tso/regression-examples/pgsql_two_fix/pgsql_two_fix.c:88:30
.Ltmp36:
	movl	$.L.str1, (%esp)
	calll	printf
	.loc	1 88 49                 # /home/naling/src/examples/tso/regression-examples/pgsql_two_fix/pgsql_two_fix.c:88:49
	movl	$0, 48(%esp)
	jmp	.LBB2_8
.Ltmp37:
.Ltmp38:
	.size	worker_2, .Ltmp38-worker_2
.Lfunc_end2:
.Ltmp39:
	.cfi_endproc
.Leh_func_end2:

	.globl	main
	.align	16, 0x90
	.type	main,@function
main:                                   # @main
.Ltmp41:
	.cfi_startproc
.Lfunc_begin3:
	.loc	1 117 0                 # /home/naling/src/examples/tso/regression-examples/pgsql_two_fix/pgsql_two_fix.c:117:0
# BB#0:                                 # %entry
	subl	$28, %esp
.Ltmp42:
	.cfi_def_cfa_offset 32
	movl	$0, 24(%esp)
	leal	20(%esp), %eax
	.loc	1 122 5 prologue_end    # /home/naling/src/examples/tso/regression-examples/pgsql_two_fix/pgsql_two_fix.c:122:5
.Ltmp43:
	movl	%eax, (%esp)
	movl	$0, 12(%esp)
	movl	$worker_1, 8(%esp)
	movl	$0, 4(%esp)
	calll	clap_thread_create
	leal	16(%esp), %eax
	.loc	1 123 5                 # /home/naling/src/examples/tso/regression-examples/pgsql_two_fix/pgsql_two_fix.c:123:5
	movl	%eax, (%esp)
	movl	$0, 12(%esp)
	movl	$worker_2, 8(%esp)
	movl	$0, 4(%esp)
	calll	clap_thread_create
	.loc	1 125 5                 # /home/naling/src/examples/tso/regression-examples/pgsql_two_fix/pgsql_two_fix.c:125:5
	movl	20(%esp), %eax
	movl	%eax, (%esp)
	movl	$0, 4(%esp)
	calll	clap_thread_join
	.loc	1 126 5                 # /home/naling/src/examples/tso/regression-examples/pgsql_two_fix/pgsql_two_fix.c:126:5
	movl	16(%esp), %eax
	movl	%eax, (%esp)
	movl	$0, 4(%esp)
	calll	clap_thread_join
	xorl	%eax, %eax
	.loc	1 134 5                 # /home/naling/src/examples/tso/regression-examples/pgsql_two_fix/pgsql_two_fix.c:134:5
	addl	$28, %esp
	ret
.Ltmp44:
.Ltmp45:
	.size	main, .Ltmp45-main
.Lfunc_end3:
.Ltmp46:
	.cfi_endproc
.Leh_func_end3:

	.type	latch1,@object          # @latch1
	.data
	.globl	latch1
	.align	4
latch1:
	.long	1                       # 0x1
	.size	latch1, 4

	.type	flag1,@object           # @flag1
	.globl	flag1
	.align	4
flag1:
	.long	1                       # 0x1
	.size	flag1, 4

	.type	latch2,@object          # @latch2
	.bss
	.globl	latch2
	.align	4
latch2:
	.long	0                       # 0x0
	.size	latch2, 4

	.type	flag2,@object           # @flag2
	.globl	flag2
	.align	4
flag2:
	.long	0                       # 0x0
	.size	flag2, 4

	.type	dummy,@object           # @dummy
	.comm	dummy,4,4
	.type	.L.str,@object          # @.str
	.section	.rodata.str1.1,"aMS",@progbits,1
.L.str:
	.asciz	 "worker1"
	.size	.L.str, 8

	.type	.L.str1,@object         # @.str1
.L.str1:
	.asciz	 "worker2"
	.size	.L.str1, 8

	.type	__unbuffered_tmp2,@object # @__unbuffered_tmp2
	.comm	__unbuffered_tmp2,4,4
	.cfi_sections .debug_frame
	.text
.Ltext_end:
	.data
.Ldata_end:
	.text
.Lsection_end1:
	.section	".note.GNU-stack","",@progbits
