	.file	"../examples/tso/Benchmarks-for-Rinspect/regression-examples/mix001/mix001.c.lz.opt.bc"
	.file	1 "/home/naling/src/inspect-0.3/../examples/tso/Benchmarks-for-Rinspect/regression-examples/mix001/mix001.c"
	.text
.Ltext_begin:
	.data
	.text
	.globl	P0
	.align	16, 0x90
	.type	P0,@function
P0:                                     # @P0
.Ltmp2:
	.cfi_startproc
.Lfunc_begin0:
	.loc	1 32 0                  # ../examples/tso/Benchmarks-for-Rinspect/regression-examples/mix001/mix001.c:32:0
# BB#0:                                 # %entry
	pushl	%esi
.Ltmp3:
	.cfi_def_cfa_offset 8
	subl	$40, %esp
.Ltmp4:
	.cfi_def_cfa_offset 48
.Ltmp5:
	.cfi_offset %esi, -8
	movl	48(%esp), %eax
	movl	%eax, 36(%esp)
	movl	$8, 20(%esp)
	movl	$32, 16(%esp)
	movl	$0, 12(%esp)
	movl	$1, 8(%esp)
	movl	$z, 4(%esp)
	movl	$5, (%esp)
	calll	clap_store_pre
	.loc	1 34 3 prologue_end     # ../examples/tso/Benchmarks-for-Rinspect/regression-examples/mix001/mix001.c:34:3
.Ltmp6:
	movl	$1, z
	movl	$8, 20(%esp)
	movl	$32, 16(%esp)
	movl	$0, 12(%esp)
	movl	$1, 8(%esp)
	movl	$z, 4(%esp)
	movl	$5, (%esp)
	calll	clap_store_post
	movl	$9, 16(%esp)
	movl	$32, 12(%esp)
	movl	$0, 8(%esp)
	movl	$z, 4(%esp)
	movl	$4, (%esp)
	calll	clap_load_pre
	.loc	1 35 3                  # ../examples/tso/Benchmarks-for-Rinspect/regression-examples/mix001/mix001.c:35:3
	movl	z, %esi
	movl	$9, 16(%esp)
	movl	$32, 12(%esp)
	movl	$0, 8(%esp)
	movl	$z, 4(%esp)
	movl	$4, (%esp)
	calll	clap_load_post
	movl	%esi, 32(%esp)
	movl	$11, 16(%esp)
	movl	$32, 12(%esp)
	movl	$0, 8(%esp)
	movl	$x, 4(%esp)
	movl	$4, (%esp)
	calll	clap_load_pre
	.loc	1 36 3                  # ../examples/tso/Benchmarks-for-Rinspect/regression-examples/mix001/mix001.c:36:3
	movl	x, %esi
	movl	$11, 16(%esp)
	movl	$32, 12(%esp)
	movl	$0, 8(%esp)
	movl	$x, 4(%esp)
	movl	$4, (%esp)
	calll	clap_load_post
	movl	%esi, 28(%esp)
	.loc	1 37 3                  # ../examples/tso/Benchmarks-for-Rinspect/regression-examples/mix001/mix001.c:37:3
	movl	32(%esp), %eax
	movl	%esi, 8(%esp)
	movl	%eax, 4(%esp)
	movl	$.L.str, (%esp)
	calll	printf
	xorb	%al, %al
	.loc	1 38 3                  # ../examples/tso/Benchmarks-for-Rinspect/regression-examples/mix001/mix001.c:38:3
	cmpl	$1, 32(%esp)
	jne	.LBB0_2
# BB#1:                                 # %land.rhs
	cmpl	$0, 28(%esp)
	sete	%al
.Ltmp7:
.LBB0_2:                                # %land.end
	movzbl	%al, %eax
	.loc	1 39 1                  # ../examples/tso/Benchmarks-for-Rinspect/regression-examples/mix001/mix001.c:39:1
	addl	$40, %esp
	popl	%esi
	ret
.Ltmp8:
.Ltmp9:
	.size	P0, .Ltmp9-P0
.Lfunc_end0:
.Ltmp10:
	.cfi_endproc
.Leh_func_end0:

	.globl	P1
	.align	16, 0x90
	.type	P1,@function
P1:                                     # @P1
.Ltmp13:
	.cfi_startproc
.Lfunc_begin1:
	.loc	1 42 0                  # ../examples/tso/Benchmarks-for-Rinspect/regression-examples/mix001/mix001.c:42:0
# BB#0:                                 # %entry
	pushl	%esi
.Ltmp14:
	.cfi_def_cfa_offset 8
	subl	$40, %esp
.Ltmp15:
	.cfi_def_cfa_offset 48
.Ltmp16:
	.cfi_offset %esi, -8
	movl	48(%esp), %eax
	movl	%eax, 36(%esp)
	movl	$33, 20(%esp)
	movl	$32, 16(%esp)
	movl	$0, 12(%esp)
	movl	$1, 8(%esp)
	movl	$x, 4(%esp)
	movl	$5, (%esp)
	calll	clap_store_pre
	.loc	1 44 3 prologue_end     # ../examples/tso/Benchmarks-for-Rinspect/regression-examples/mix001/mix001.c:44:3
.Ltmp17:
	movl	$1, x
	movl	$33, 20(%esp)
	movl	$32, 16(%esp)
	movl	$0, 12(%esp)
	movl	$1, 8(%esp)
	movl	$x, 4(%esp)
	movl	$5, (%esp)
	calll	clap_store_post
	movl	$34, 16(%esp)
	movl	$32, 12(%esp)
	movl	$0, 8(%esp)
	movl	$x, 4(%esp)
	movl	$4, (%esp)
	calll	clap_load_pre
	.loc	1 45 3                  # ../examples/tso/Benchmarks-for-Rinspect/regression-examples/mix001/mix001.c:45:3
	movl	x, %esi
	movl	$34, 16(%esp)
	movl	$32, 12(%esp)
	movl	$0, 8(%esp)
	movl	$x, 4(%esp)
	movl	$4, (%esp)
	calll	clap_load_post
	movl	%esi, 32(%esp)
	movl	$36, 16(%esp)
	movl	$32, 12(%esp)
	movl	$0, 8(%esp)
	movl	$y, 4(%esp)
	movl	$4, (%esp)
	calll	clap_load_pre
	.loc	1 46 3                  # ../examples/tso/Benchmarks-for-Rinspect/regression-examples/mix001/mix001.c:46:3
	movl	y, %esi
	movl	$36, 16(%esp)
	movl	$32, 12(%esp)
	movl	$0, 8(%esp)
	movl	$y, 4(%esp)
	movl	$4, (%esp)
	calll	clap_load_post
	movl	%esi, 28(%esp)
	.loc	1 47 3                  # ../examples/tso/Benchmarks-for-Rinspect/regression-examples/mix001/mix001.c:47:3
	movl	32(%esp), %eax
	movl	%esi, 8(%esp)
	movl	%eax, 4(%esp)
	movl	$.L.str1, (%esp)
	calll	printf
	xorb	%al, %al
	.loc	1 48 3                  # ../examples/tso/Benchmarks-for-Rinspect/regression-examples/mix001/mix001.c:48:3
	cmpl	$1, 32(%esp)
	jne	.LBB1_2
# BB#1:                                 # %land.rhs
	cmpl	$0, 28(%esp)
	sete	%al
.Ltmp18:
.LBB1_2:                                # %land.end
	movzbl	%al, %eax
	.loc	1 49 1                  # ../examples/tso/Benchmarks-for-Rinspect/regression-examples/mix001/mix001.c:49:1
	addl	$40, %esp
	popl	%esi
	ret
.Ltmp19:
.Ltmp20:
	.size	P1, .Ltmp20-P1
.Lfunc_end1:
.Ltmp21:
	.cfi_endproc
.Leh_func_end1:

	.globl	P2
	.align	16, 0x90
	.type	P2,@function
P2:                                     # @P2
.Ltmp24:
	.cfi_startproc
.Lfunc_begin2:
	.loc	1 52 0                  # ../examples/tso/Benchmarks-for-Rinspect/regression-examples/mix001/mix001.c:52:0
# BB#0:                                 # %entry
	pushl	%esi
.Ltmp25:
	.cfi_def_cfa_offset 8
	subl	$40, %esp
.Ltmp26:
	.cfi_def_cfa_offset 48
.Ltmp27:
	.cfi_offset %esi, -8
	movl	48(%esp), %eax
	movl	%eax, 36(%esp)
	movl	$58, 20(%esp)
	movl	$32, 16(%esp)
	movl	$0, 12(%esp)
	movl	$1, 8(%esp)
	movl	$y, 4(%esp)
	movl	$5, (%esp)
	calll	clap_store_pre
	.loc	1 54 3 prologue_end     # ../examples/tso/Benchmarks-for-Rinspect/regression-examples/mix001/mix001.c:54:3
.Ltmp28:
	movl	$1, y
	movl	$58, 20(%esp)
	movl	$32, 16(%esp)
	movl	$0, 12(%esp)
	movl	$1, 8(%esp)
	movl	$y, 4(%esp)
	movl	$5, (%esp)
	calll	clap_store_post
	movl	$59, 16(%esp)
	movl	$32, 12(%esp)
	movl	$0, 8(%esp)
	movl	$y, 4(%esp)
	movl	$4, (%esp)
	calll	clap_load_pre
	.loc	1 55 3                  # ../examples/tso/Benchmarks-for-Rinspect/regression-examples/mix001/mix001.c:55:3
	movl	y, %esi
	movl	$59, 16(%esp)
	movl	$32, 12(%esp)
	movl	$0, 8(%esp)
	movl	$y, 4(%esp)
	movl	$4, (%esp)
	calll	clap_load_post
	movl	%esi, 32(%esp)
	movl	$61, 16(%esp)
	movl	$32, 12(%esp)
	movl	$0, 8(%esp)
	movl	$z, 4(%esp)
	movl	$4, (%esp)
	calll	clap_load_pre
	.loc	1 56 3                  # ../examples/tso/Benchmarks-for-Rinspect/regression-examples/mix001/mix001.c:56:3
	movl	z, %esi
	movl	$61, 16(%esp)
	movl	$32, 12(%esp)
	movl	$0, 8(%esp)
	movl	$z, 4(%esp)
	movl	$4, (%esp)
	calll	clap_load_post
	movl	%esi, 28(%esp)
	.loc	1 57 3                  # ../examples/tso/Benchmarks-for-Rinspect/regression-examples/mix001/mix001.c:57:3
	movl	32(%esp), %eax
	movl	%esi, 8(%esp)
	movl	%eax, 4(%esp)
	movl	$.L.str2, (%esp)
	calll	printf
	xorb	%al, %al
	.loc	1 58 3                  # ../examples/tso/Benchmarks-for-Rinspect/regression-examples/mix001/mix001.c:58:3
	cmpl	$1, 32(%esp)
	jne	.LBB2_2
# BB#1:                                 # %land.rhs
	cmpl	$0, 28(%esp)
	sete	%al
.Ltmp29:
.LBB2_2:                                # %land.end
	movzbl	%al, %eax
	.loc	1 59 1                  # ../examples/tso/Benchmarks-for-Rinspect/regression-examples/mix001/mix001.c:59:1
	addl	$40, %esp
	popl	%esi
	ret
.Ltmp30:
.Ltmp31:
	.size	P2, .Ltmp31-P2
.Lfunc_end2:
.Ltmp32:
	.cfi_endproc
.Leh_func_end2:

	.globl	main
	.align	16, 0x90
	.type	main,@function
main:                                   # @main
.Ltmp34:
	.cfi_startproc
.Lfunc_begin3:
	.loc	1 62 0                  # ../examples/tso/Benchmarks-for-Rinspect/regression-examples/mix001/mix001.c:62:0
# BB#0:                                 # %entry
	subl	$44, %esp
.Ltmp35:
	.cfi_def_cfa_offset 48
	movl	$0, 40(%esp)
	leal	36(%esp), %eax
	.loc	1 66 3 prologue_end     # ../examples/tso/Benchmarks-for-Rinspect/regression-examples/mix001/mix001.c:66:3
.Ltmp36:
	movl	%eax, (%esp)
	movl	$0, 12(%esp)
	movl	$P1, 8(%esp)
	movl	$0, 4(%esp)
	calll	clap_thread_create
	leal	32(%esp), %eax
	.loc	1 67 3                  # ../examples/tso/Benchmarks-for-Rinspect/regression-examples/mix001/mix001.c:67:3
	movl	%eax, (%esp)
	movl	$0, 12(%esp)
	movl	$P0, 8(%esp)
	movl	$0, 4(%esp)
	calll	clap_thread_create
	leal	28(%esp), %eax
	.loc	1 68 3                  # ../examples/tso/Benchmarks-for-Rinspect/regression-examples/mix001/mix001.c:68:3
	movl	%eax, (%esp)
	movl	$0, 12(%esp)
	movl	$P2, 8(%esp)
	movl	$0, 4(%esp)
	calll	clap_thread_create
	.loc	1 70 3                  # ../examples/tso/Benchmarks-for-Rinspect/regression-examples/mix001/mix001.c:70:3
	movl	36(%esp), %eax
	leal	24(%esp), %ecx
	movl	%ecx, 4(%esp)
	movl	%eax, (%esp)
	calll	clap_thread_join
	.loc	1 71 3                  # ../examples/tso/Benchmarks-for-Rinspect/regression-examples/mix001/mix001.c:71:3
	movl	32(%esp), %eax
	leal	20(%esp), %ecx
	movl	%ecx, 4(%esp)
	movl	%eax, (%esp)
	calll	clap_thread_join
	.loc	1 72 3                  # ../examples/tso/Benchmarks-for-Rinspect/regression-examples/mix001/mix001.c:72:3
	movl	28(%esp), %eax
	leal	16(%esp), %ecx
	movl	%ecx, 4(%esp)
	movl	%eax, (%esp)
	calll	clap_thread_join
	.loc	1 75 3                  # ../examples/tso/Benchmarks-for-Rinspect/regression-examples/mix001/mix001.c:75:3
	cmpl	$0, 24(%esp)
	je	.LBB3_4
# BB#1:                                 # %land.lhs.true
	cmpl	$0, 20(%esp)
	je	.LBB3_4
# BB#2:                                 # %land.lhs.true7
	cmpl	$0, 16(%esp)
	je	.LBB3_4
# BB#3:                                 # %if.then
	.loc	1 76 5                  # ../examples/tso/Benchmarks-for-Rinspect/regression-examples/mix001/mix001.c:76:5
.Ltmp37:
	movl	$.L.str3, (%esp)
	calll	printf
	.loc	1 77 5                  # ../examples/tso/Benchmarks-for-Rinspect/regression-examples/mix001/mix001.c:77:5
	movl	$.L.str4, (%esp)
	calll	printf
.Ltmp38:
.LBB3_4:                                # %if.end
	xorl	%eax, %eax
	.loc	1 80 3                  # ../examples/tso/Benchmarks-for-Rinspect/regression-examples/mix001/mix001.c:80:3
	addl	$44, %esp
	ret
.Ltmp39:
.Ltmp40:
	.size	main, .Ltmp40-main
.Lfunc_end3:
.Ltmp41:
	.cfi_endproc
.Leh_func_end3:

	.type	z,@object               # @z
	.comm	z,4,4
	.type	x,@object               # @x
	.comm	x,4,4
	.type	.L.str,@object          # @.str
	.section	.rodata.str1.1,"aMS",@progbits,1
.L.str:
	.asciz	 "\n %%%% (EAX0=%d, EBX0=%d) %%%%\n"
	.size	.L.str, 32

	.type	y,@object               # @y
	.comm	y,4,4
	.type	.L.str1,@object         # @.str1
.L.str1:
	.asciz	 "\n %%%% (EAX1=%d, EBX1=%d) %%%%\n"
	.size	.L.str1, 32

	.type	.L.str2,@object         # @.str2
.L.str2:
	.asciz	 "\n %%%% (EAX2=%d, EBX2=%d) %%%%\n"
	.size	.L.str2, 32

	.type	.L.str3,@object         # @.str3
.L.str3:
	.asciz	 "\n@@@CLAP: There is a SC violation! \n"
	.size	.L.str3, 37

	.type	.L.str4,@object         # @.str4
.L.str4:
	.asciz	 "\033[1;31m SC Violation!!! \033[0m\n"
	.size	.L.str4, 30

	.cfi_sections .debug_frame
	.text
.Ltext_end:
	.data
.Ldata_end:
	.text
.Lsection_end1:
	.section	".note.GNU-stack","",@progbits
