	.file	"/home/naling/src/examples/tso/regression-examples/pgsql_two/pgsql_two.c.lz.opt.bc"
	.file	1 "/home/naling/src/examples/tso/regression-examples/pgsql_two/pgsql_two.c"
	.text
.Ltext_begin:
	.data
	.text
	.globl	worker_1
	.align	16, 0x90
	.type	worker_1,@function
worker_1:                               # @worker_1
.Ltmp2:
	.cfi_startproc
.Lfunc_begin0:
	.loc	1 48 0                  # /home/naling/src/examples/tso/regression-examples/pgsql_two/pgsql_two.c:48:0
# BB#0:                                 # %entry
	pushl	%esi
.Ltmp3:
	.cfi_def_cfa_offset 8
	subl	$56, %esp
.Ltmp4:
	.cfi_def_cfa_offset 64
.Ltmp5:
	.cfi_offset %esi, -8
	movl	64(%esp), %eax
	movl	%eax, 48(%esp)
	.loc	1 49 13 prologue_end    # /home/naling/src/examples/tso/regression-examples/pgsql_two/pgsql_two.c:49:13
.Ltmp6:
	movl	$0, 44(%esp)
	.loc	1 49 27                 # /home/naling/src/examples/tso/regression-examples/pgsql_two/pgsql_two.c:49:27
	movl	$0, 40(%esp)
	movl	$0, 36(%esp)
	.align	16, 0x90
.LBB0_1:                                # %for.cond
                                        # =>This Inner Loop Header: Depth=1
	movl	$15, 16(%esp)
	movl	$32, 12(%esp)
	movl	$0, 8(%esp)
	movl	$latch1, 4(%esp)
	movl	$4, (%esp)
	calll	clap_load_pre
	.loc	1 55 2                  # /home/naling/src/examples/tso/regression-examples/pgsql_two/pgsql_two.c:55:2
.Ltmp7:
	movl	latch1, %esi
	movl	$15, 16(%esp)
	movl	$32, 12(%esp)
	movl	$0, 8(%esp)
	movl	$latch1, 4(%esp)
	movl	$4, (%esp)
	calll	clap_load_post
	testl	%esi, %esi
	je	.LBB0_6
# BB#2:                                 # %land.lhs.true
                                        #   in Loop: Header=BB0_1 Depth=1
	movl	$20, 16(%esp)
	movl	$32, 12(%esp)
	movl	$0, 8(%esp)
	movl	$flag1, 4(%esp)
	movl	$4, (%esp)
	calll	clap_load_pre
	.loc	1 58 2                  # /home/naling/src/examples/tso/regression-examples/pgsql_two/pgsql_two.c:58:2
	movl	flag1, %esi
	movl	$20, 16(%esp)
	movl	$32, 12(%esp)
	movl	$0, 8(%esp)
	movl	$flag1, 4(%esp)
	movl	$4, (%esp)
	calll	clap_load_post
	testl	%esi, %esi
	je	.LBB0_7
# BB#3:                                 # %cond.end
                                        #   in Loop: Header=BB0_1 Depth=1
	movl	$27, 20(%esp)
	movl	$32, 16(%esp)
	movl	$0, 12(%esp)
	movl	$0, 8(%esp)
	movl	$latch1, 4(%esp)
	movl	$5, (%esp)
	calll	clap_store_pre
	.loc	1 59 2                  # /home/naling/src/examples/tso/regression-examples/pgsql_two/pgsql_two.c:59:2
	movl	$0, latch1
	movl	$27, 20(%esp)
	movl	$32, 16(%esp)
	movl	$0, 12(%esp)
	movl	$0, 8(%esp)
	movl	$latch1, 4(%esp)
	movl	$5, (%esp)
	calll	clap_store_post
	movl	$28, 16(%esp)
	movl	$32, 12(%esp)
	movl	$0, 8(%esp)
	movl	$flag1, 4(%esp)
	movl	$4, (%esp)
	calll	clap_load_pre
	.loc	1 60 2                  # /home/naling/src/examples/tso/regression-examples/pgsql_two/pgsql_two.c:60:2
	movl	flag1, %esi
	movl	$28, 16(%esp)
	movl	$32, 12(%esp)
	movl	$0, 8(%esp)
	movl	$flag1, 4(%esp)
	movl	$4, (%esp)
	calll	clap_load_post
	testl	%esi, %esi
	je	.LBB0_5
# BB#4:                                 # %if.then3
                                        #   in Loop: Header=BB0_1 Depth=1
	movl	$31, 20(%esp)
	movl	$32, 16(%esp)
	movl	$0, 12(%esp)
	movl	$0, 8(%esp)
	movl	$flag1, 4(%esp)
	movl	$5, (%esp)
	calll	clap_store_pre
	.loc	1 62 6                  # /home/naling/src/examples/tso/regression-examples/pgsql_two/pgsql_two.c:62:6
.Ltmp8:
	movl	$0, flag1
	movl	$31, 20(%esp)
	movl	$32, 16(%esp)
	movl	$0, 12(%esp)
	movl	$0, 8(%esp)
	movl	$flag1, 4(%esp)
	movl	$5, (%esp)
	calll	clap_store_post
	movl	$32, 20(%esp)
	movl	$32, 16(%esp)
	movl	$0, 12(%esp)
	movl	$1, 8(%esp)
	movl	$flag2, 4(%esp)
	movl	$5, (%esp)
	calll	clap_store_pre
	.loc	1 63 6                  # /home/naling/src/examples/tso/regression-examples/pgsql_two/pgsql_two.c:63:6
	movl	$1, flag2
	movl	$32, 20(%esp)
	movl	$32, 16(%esp)
	movl	$0, 12(%esp)
	movl	$1, 8(%esp)
	movl	$flag2, 4(%esp)
	movl	$5, (%esp)
	calll	clap_store_post
	movl	$33, 20(%esp)
	movl	$32, 16(%esp)
	movl	$0, 12(%esp)
	movl	$1, 8(%esp)
	movl	$latch2, 4(%esp)
	movl	$5, (%esp)
	calll	clap_store_pre
	.loc	1 64 6                  # /home/naling/src/examples/tso/regression-examples/pgsql_two/pgsql_two.c:64:6
	movl	$1, latch2
	movl	$33, 20(%esp)
	movl	$32, 16(%esp)
	movl	$0, 12(%esp)
	movl	$1, 8(%esp)
	movl	$latch2, 4(%esp)
	movl	$5, (%esp)
	calll	clap_store_post
.Ltmp9:
.LBB0_5:                                # %if.end4
                                        #   in Loop: Header=BB0_1 Depth=1
	.loc	1 68 2                  # /home/naling/src/examples/tso/regression-examples/pgsql_two/pgsql_two.c:68:2
	movl	36(%esp), %eax
	leal	1(%eax), %ecx
	movl	%ecx, 36(%esp)
	testl	%eax, %eax
	jle	.LBB0_1
.Ltmp10:
.LBB0_6:                                # %for.end
	.loc	1 70 1                  # /home/naling/src/examples/tso/regression-examples/pgsql_two/pgsql_two.c:70:1
	movl	52(%esp), %eax
	addl	$56, %esp
	popl	%esi
	ret
.LBB0_7:                                # %cond.false
	.loc	1 58 2                  # /home/naling/src/examples/tso/regression-examples/pgsql_two/pgsql_two.c:58:2
.Ltmp11:
	movl	$.L__PRETTY_FUNCTION__.worker_1, 12(%esp)
	movl	$58, 8(%esp)
	movl	$.L.str2, 4(%esp)
	movl	$.L.str1, (%esp)
	calll	clap___assert_fail
.Ltmp12:
.Ltmp13:
	.size	worker_1, .Ltmp13-worker_1
.Lfunc_end0:
.Ltmp14:
	.cfi_endproc
.Leh_func_end0:

	.globl	worker_2
	.align	16, 0x90
	.type	worker_2,@function
worker_2:                               # @worker_2
.Ltmp17:
	.cfi_startproc
.Lfunc_begin1:
	.loc	1 73 0                  # /home/naling/src/examples/tso/regression-examples/pgsql_two/pgsql_two.c:73:0
# BB#0:                                 # %entry
	pushl	%esi
.Ltmp18:
	.cfi_def_cfa_offset 8
	subl	$56, %esp
.Ltmp19:
	.cfi_def_cfa_offset 64
.Ltmp20:
	.cfi_offset %esi, -8
	movl	64(%esp), %eax
	movl	%eax, 48(%esp)
	.loc	1 73 11 prologue_end    # /home/naling/src/examples/tso/regression-examples/pgsql_two/pgsql_two.c:73:11
.Ltmp21:
	movl	$0, 44(%esp)
	.loc	1 73 25                 # /home/naling/src/examples/tso/regression-examples/pgsql_two/pgsql_two.c:73:25
	movl	$0, 40(%esp)
	movl	$0, 36(%esp)
	.align	16, 0x90
.LBB1_1:                                # %for.cond
                                        # =>This Inner Loop Header: Depth=1
	movl	$58, 16(%esp)
	movl	$32, 12(%esp)
	movl	$0, 8(%esp)
	movl	$latch2, 4(%esp)
	movl	$4, (%esp)
	calll	clap_load_pre
	.loc	1 79 2                  # /home/naling/src/examples/tso/regression-examples/pgsql_two/pgsql_two.c:79:2
.Ltmp22:
	movl	latch2, %esi
	movl	$58, 16(%esp)
	movl	$32, 12(%esp)
	movl	$0, 8(%esp)
	movl	$latch2, 4(%esp)
	movl	$4, (%esp)
	calll	clap_load_post
	testl	%esi, %esi
	je	.LBB1_6
# BB#2:                                 # %land.lhs.true
                                        #   in Loop: Header=BB1_1 Depth=1
	movl	$63, 16(%esp)
	movl	$32, 12(%esp)
	movl	$0, 8(%esp)
	movl	$flag2, 4(%esp)
	movl	$4, (%esp)
	calll	clap_load_pre
	.loc	1 82 2                  # /home/naling/src/examples/tso/regression-examples/pgsql_two/pgsql_two.c:82:2
	movl	flag2, %esi
	movl	$63, 16(%esp)
	movl	$32, 12(%esp)
	movl	$0, 8(%esp)
	movl	$flag2, 4(%esp)
	movl	$4, (%esp)
	calll	clap_load_post
	testl	%esi, %esi
	je	.LBB1_7
# BB#3:                                 # %cond.end
                                        #   in Loop: Header=BB1_1 Depth=1
	movl	$70, 20(%esp)
	movl	$32, 16(%esp)
	movl	$0, 12(%esp)
	movl	$0, 8(%esp)
	movl	$latch2, 4(%esp)
	movl	$5, (%esp)
	calll	clap_store_pre
	.loc	1 83 2                  # /home/naling/src/examples/tso/regression-examples/pgsql_two/pgsql_two.c:83:2
	movl	$0, latch2
	movl	$70, 20(%esp)
	movl	$32, 16(%esp)
	movl	$0, 12(%esp)
	movl	$0, 8(%esp)
	movl	$latch2, 4(%esp)
	movl	$5, (%esp)
	calll	clap_store_post
	movl	$71, 16(%esp)
	movl	$32, 12(%esp)
	movl	$0, 8(%esp)
	movl	$flag2, 4(%esp)
	movl	$4, (%esp)
	calll	clap_load_pre
	.loc	1 84 2                  # /home/naling/src/examples/tso/regression-examples/pgsql_two/pgsql_two.c:84:2
	movl	flag2, %esi
	movl	$71, 16(%esp)
	movl	$32, 12(%esp)
	movl	$0, 8(%esp)
	movl	$flag2, 4(%esp)
	movl	$4, (%esp)
	calll	clap_load_post
	testl	%esi, %esi
	je	.LBB1_5
# BB#4:                                 # %if.then3
                                        #   in Loop: Header=BB1_1 Depth=1
	movl	$74, 20(%esp)
	movl	$32, 16(%esp)
	movl	$0, 12(%esp)
	movl	$0, 8(%esp)
	movl	$flag2, 4(%esp)
	movl	$5, (%esp)
	calll	clap_store_pre
	.loc	1 86 6                  # /home/naling/src/examples/tso/regression-examples/pgsql_two/pgsql_two.c:86:6
.Ltmp23:
	movl	$0, flag2
	movl	$74, 20(%esp)
	movl	$32, 16(%esp)
	movl	$0, 12(%esp)
	movl	$0, 8(%esp)
	movl	$flag2, 4(%esp)
	movl	$5, (%esp)
	calll	clap_store_post
	movl	$75, 20(%esp)
	movl	$32, 16(%esp)
	movl	$0, 12(%esp)
	movl	$1, 8(%esp)
	movl	$flag1, 4(%esp)
	movl	$5, (%esp)
	calll	clap_store_pre
	.loc	1 87 6                  # /home/naling/src/examples/tso/regression-examples/pgsql_two/pgsql_two.c:87:6
	movl	$1, flag1
	movl	$75, 20(%esp)
	movl	$32, 16(%esp)
	movl	$0, 12(%esp)
	movl	$1, 8(%esp)
	movl	$flag1, 4(%esp)
	movl	$5, (%esp)
	calll	clap_store_post
	movl	$76, 20(%esp)
	movl	$32, 16(%esp)
	movl	$0, 12(%esp)
	movl	$1, 8(%esp)
	movl	$latch1, 4(%esp)
	movl	$5, (%esp)
	calll	clap_store_pre
	.loc	1 88 6                  # /home/naling/src/examples/tso/regression-examples/pgsql_two/pgsql_two.c:88:6
	movl	$1, latch1
	movl	$76, 20(%esp)
	movl	$32, 16(%esp)
	movl	$0, 12(%esp)
	movl	$1, 8(%esp)
	movl	$latch1, 4(%esp)
	movl	$5, (%esp)
	calll	clap_store_post
.Ltmp24:
.LBB1_5:                                # %if.end4
                                        #   in Loop: Header=BB1_1 Depth=1
	.loc	1 92 2                  # /home/naling/src/examples/tso/regression-examples/pgsql_two/pgsql_two.c:92:2
	movl	36(%esp), %eax
	leal	1(%eax), %ecx
	movl	%ecx, 36(%esp)
	testl	%eax, %eax
	jle	.LBB1_1
.Ltmp25:
.LBB1_6:                                # %for.end
	.loc	1 95 1                  # /home/naling/src/examples/tso/regression-examples/pgsql_two/pgsql_two.c:95:1
	movl	52(%esp), %eax
	addl	$56, %esp
	popl	%esi
	ret
.LBB1_7:                                # %cond.false
	.loc	1 82 2                  # /home/naling/src/examples/tso/regression-examples/pgsql_two/pgsql_two.c:82:2
.Ltmp26:
	movl	$.L__PRETTY_FUNCTION__.worker_2, 12(%esp)
	movl	$82, 8(%esp)
	movl	$.L.str2, 4(%esp)
	movl	$.L.str3, (%esp)
	calll	clap___assert_fail
.Ltmp27:
.Ltmp28:
	.size	worker_2, .Ltmp28-worker_2
.Lfunc_end1:
.Ltmp29:
	.cfi_endproc
.Leh_func_end1:

	.globl	main
	.align	16, 0x90
	.type	main,@function
main:                                   # @main
.Ltmp31:
	.cfi_startproc
.Lfunc_begin2:
	.loc	1 109 0                 # /home/naling/src/examples/tso/regression-examples/pgsql_two/pgsql_two.c:109:0
# BB#0:                                 # %entry
	subl	$28, %esp
.Ltmp32:
	.cfi_def_cfa_offset 32
	movl	$0, 24(%esp)
	leal	20(%esp), %eax
	.loc	1 114 5 prologue_end    # /home/naling/src/examples/tso/regression-examples/pgsql_two/pgsql_two.c:114:5
.Ltmp33:
	movl	%eax, (%esp)
	movl	$0, 12(%esp)
	movl	$worker_1, 8(%esp)
	movl	$0, 4(%esp)
	calll	clap_thread_create
	leal	16(%esp), %eax
	.loc	1 115 5                 # /home/naling/src/examples/tso/regression-examples/pgsql_two/pgsql_two.c:115:5
	movl	%eax, (%esp)
	movl	$0, 12(%esp)
	movl	$worker_2, 8(%esp)
	movl	$0, 4(%esp)
	calll	clap_thread_create
	.loc	1 117 5                 # /home/naling/src/examples/tso/regression-examples/pgsql_two/pgsql_two.c:117:5
	movl	20(%esp), %eax
	movl	%eax, (%esp)
	movl	$0, 4(%esp)
	calll	clap_thread_join
	.loc	1 118 5                 # /home/naling/src/examples/tso/regression-examples/pgsql_two/pgsql_two.c:118:5
	movl	16(%esp), %eax
	movl	%eax, (%esp)
	movl	$0, 4(%esp)
	calll	clap_thread_join
	xorl	%eax, %eax
	.loc	1 126 3                 # /home/naling/src/examples/tso/regression-examples/pgsql_two/pgsql_two.c:126:3
	addl	$28, %esp
	ret
.Ltmp34:
.Ltmp35:
	.size	main, .Ltmp35-main
.Lfunc_end2:
.Ltmp36:
	.cfi_endproc
.Leh_func_end2:

	.type	latch1,@object          # @latch1
	.data
	.globl	latch1
	.align	4
latch1:
	.long	1                       # 0x1
	.size	latch1, 4

	.type	flag1,@object           # @flag1
	.globl	flag1
	.align	4
flag1:
	.long	1                       # 0x1
	.size	flag1, 4

	.type	.L.str,@object          # @.str
	.section	.rodata.str1.1,"aMS",@progbits,1
.L.str:
	.asciz	 "violation"
	.size	.L.str, 10

	.type	.L.str1,@object         # @.str1
.L.str1:
	.asciz	 "\"violation\" && flag1"
	.size	.L.str1, 21

	.type	.L.str2,@object         # @.str2
.L.str2:
	.asciz	 "/home/naling/src/examples/tso/regression-examples/pgsql_two/pgsql_two.c"
	.size	.L.str2, 72

	.type	.L__PRETTY_FUNCTION__.worker_1,@object # @__PRETTY_FUNCTION__.worker_1
.L__PRETTY_FUNCTION__.worker_1:
	.asciz	 "void *worker_1(void *)"
	.size	.L__PRETTY_FUNCTION__.worker_1, 23

	.type	flag2,@object           # @flag2
	.comm	flag2,4,4
	.type	latch2,@object          # @latch2
	.comm	latch2,4,4
	.type	.L.str3,@object         # @.str3
.L.str3:
	.asciz	 "\"violation\" && flag2"
	.size	.L.str3, 21

	.type	.L__PRETTY_FUNCTION__.worker_2,@object # @__PRETTY_FUNCTION__.worker_2
.L__PRETTY_FUNCTION__.worker_2:
	.asciz	 "void *worker_2(void *)"
	.size	.L__PRETTY_FUNCTION__.worker_2, 23

	.cfi_sections .debug_frame
	.text
.Ltext_end:
	.data
.Ldata_end:
	.text
.Lsection_end1:
	.section	".note.GNU-stack","",@progbits
