	.file	"/home/naling/src/examples/tso/regression-examples/SyzmanskiSafe/SyzmanskiSafe.c.lz.opt.bc"
	.file	1 "/home/naling/src/examples/tso/regression-examples/SyzmanskiSafe/SyzmanskiSafe.c"
	.text
.Ltext_begin:
	.data
	.text
	.globl	thr1
	.align	16, 0x90
	.type	thr1,@function
thr1:                                   # @thr1
.Ltmp2:
	.cfi_startproc
.Lfunc_begin0:
	.loc	1 10 0                  # /home/naling/src/examples/tso/regression-examples/SyzmanskiSafe/SyzmanskiSafe.c:10:0
# BB#0:                                 # %entry
	.loc	1 11 13 prologue_end    # /home/naling/src/examples/tso/regression-examples/SyzmanskiSafe/SyzmanskiSafe.c:11:13
	pushl	%esi
.Ltmp3:
	.cfi_def_cfa_offset 8
	subl	$40, %esp
.Ltmp4:
	.cfi_def_cfa_offset 48
.Ltmp5:
	.cfi_offset %esi, -8
	movl	$0, 36(%esp)
	.loc	1 12 13                 # /home/naling/src/examples/tso/regression-examples/SyzmanskiSafe/SyzmanskiSafe.c:12:13
	movl	$0, 32(%esp)
	.loc	1 13 13                 # /home/naling/src/examples/tso/regression-examples/SyzmanskiSafe/SyzmanskiSafe.c:13:13
	movl	$0, 28(%esp)
	.loc	1 14 13                 # /home/naling/src/examples/tso/regression-examples/SyzmanskiSafe/SyzmanskiSafe.c:14:13
	movl	$0, 24(%esp)
	movl	$13, 20(%esp)
	movl	$32, 16(%esp)
	movl	$0, 12(%esp)
	movl	$1, 8(%esp)
	movl	$flag1, 4(%esp)
	movl	$5, (%esp)
	calll	clap_store_pre
	.loc	1 15 5                  # /home/naling/src/examples/tso/regression-examples/SyzmanskiSafe/SyzmanskiSafe.c:15:5
	movl	$1, flag1
	movl	$13, 20(%esp)
	movl	$32, 16(%esp)
	movl	$0, 12(%esp)
	movl	$1, 8(%esp)
	movl	$flag1, 4(%esp)
	movl	$5, (%esp)
	calll	clap_store_post
	.align	16, 0x90
.LBB0_1:                                # %while.cond
                                        # =>This Inner Loop Header: Depth=1
	movl	$15, 16(%esp)
	movl	$32, 12(%esp)
	movl	$0, 8(%esp)
	movl	$flag2, 4(%esp)
	movl	$4, (%esp)
	calll	clap_load_pre
	.loc	1 16 5                  # /home/naling/src/examples/tso/regression-examples/SyzmanskiSafe/SyzmanskiSafe.c:16:5
	movl	flag2, %esi
	movl	$15, 16(%esp)
	movl	$32, 12(%esp)
	movl	$0, 8(%esp)
	movl	$flag2, 4(%esp)
	movl	$4, (%esp)
	calll	clap_load_post
	cmpl	$3, %esi
	jl	.LBB0_3
# BB#2:                                 # %while.body
                                        #   in Loop: Header=BB0_1 Depth=1
	.loc	1 16 24                 # /home/naling/src/examples/tso/regression-examples/SyzmanskiSafe/SyzmanskiSafe.c:16:24
.Ltmp6:
	movl	36(%esp), %eax
	leal	1(%eax), %ecx
	movl	%ecx, 36(%esp)
	testl	%eax, %eax
	jle	.LBB0_1
.Ltmp7:
.LBB0_3:                                # %while.end
	movl	$25, 20(%esp)
	movl	$32, 16(%esp)
	movl	$0, 12(%esp)
	movl	$3, 8(%esp)
	movl	$flag1, 4(%esp)
	movl	$5, (%esp)
	calll	clap_store_pre
	.loc	1 18 5                  # /home/naling/src/examples/tso/regression-examples/SyzmanskiSafe/SyzmanskiSafe.c:18:5
	movl	$3, flag1
	movl	$25, 20(%esp)
	movl	$32, 16(%esp)
	movl	$0, 12(%esp)
	movl	$3, 8(%esp)
	movl	$flag1, 4(%esp)
	movl	$5, (%esp)
	calll	clap_store_post
	movl	$26, 16(%esp)
	movl	$32, 12(%esp)
	movl	$0, 8(%esp)
	movl	$flag2, 4(%esp)
	movl	$4, (%esp)
	calll	clap_load_pre
	.loc	1 19 5                  # /home/naling/src/examples/tso/regression-examples/SyzmanskiSafe/SyzmanskiSafe.c:19:5
	movl	flag2, %esi
	movl	$26, 16(%esp)
	movl	$32, 12(%esp)
	movl	$0, 8(%esp)
	movl	$flag2, 4(%esp)
	movl	$4, (%esp)
	calll	clap_load_post
	cmpl	$1, %esi
	jne	.LBB0_7
# BB#4:                                 # %if.then3
	movl	$29, 20(%esp)
	movl	$32, 16(%esp)
	movl	$0, 12(%esp)
	movl	$2, 8(%esp)
	movl	$flag1, 4(%esp)
	movl	$5, (%esp)
	calll	clap_store_pre
	.loc	1 20 2                  # /home/naling/src/examples/tso/regression-examples/SyzmanskiSafe/SyzmanskiSafe.c:20:2
.Ltmp8:
	movl	$2, flag1
	movl	$29, 20(%esp)
	movl	$32, 16(%esp)
	movl	$0, 12(%esp)
	movl	$2, 8(%esp)
	movl	$flag1, 4(%esp)
	movl	$5, (%esp)
	calll	clap_store_post
	.align	16, 0x90
.LBB0_5:                                # %while.cond4
                                        # =>This Inner Loop Header: Depth=1
	movl	$31, 16(%esp)
	movl	$32, 12(%esp)
	movl	$0, 8(%esp)
	movl	$flag2, 4(%esp)
	movl	$4, (%esp)
	calll	clap_load_pre
	.loc	1 21 2                  # /home/naling/src/examples/tso/regression-examples/SyzmanskiSafe/SyzmanskiSafe.c:21:2
	movl	flag2, %esi
	movl	$31, 16(%esp)
	movl	$32, 12(%esp)
	movl	$0, 8(%esp)
	movl	$flag2, 4(%esp)
	movl	$4, (%esp)
	calll	clap_load_post
	cmpl	$4, %esi
	je	.LBB0_7
# BB#6:                                 # %while.body6
                                        #   in Loop: Header=BB0_5 Depth=1
	.loc	1 21 21                 # /home/naling/src/examples/tso/regression-examples/SyzmanskiSafe/SyzmanskiSafe.c:21:21
.Ltmp9:
	movl	32(%esp), %eax
	leal	1(%eax), %ecx
	movl	%ecx, 32(%esp)
	testl	%eax, %eax
	jle	.LBB0_5
.Ltmp10:
.LBB0_7:                                # %if.end12
	movl	$42, 20(%esp)
	movl	$32, 16(%esp)
	movl	$0, 12(%esp)
	movl	$4, 8(%esp)
	movl	$flag1, 4(%esp)
	movl	$5, (%esp)
	calll	clap_store_pre
	.loc	1 23 5                  # /home/naling/src/examples/tso/regression-examples/SyzmanskiSafe/SyzmanskiSafe.c:23:5
	movl	$4, flag1
	movl	$42, 20(%esp)
	movl	$32, 16(%esp)
	movl	$0, 12(%esp)
	movl	$4, 8(%esp)
	movl	$flag1, 4(%esp)
	movl	$5, (%esp)
	calll	clap_store_post
	.align	16, 0x90
.LBB0_8:                                # %while.cond13
                                        # =>This Inner Loop Header: Depth=1
	movl	$44, 16(%esp)
	movl	$32, 12(%esp)
	movl	$0, 8(%esp)
	movl	$flag2, 4(%esp)
	movl	$4, (%esp)
	calll	clap_load_pre
	.loc	1 24 5                  # /home/naling/src/examples/tso/regression-examples/SyzmanskiSafe/SyzmanskiSafe.c:24:5
	movl	flag2, %esi
	movl	$44, 16(%esp)
	movl	$32, 12(%esp)
	movl	$0, 8(%esp)
	movl	$flag2, 4(%esp)
	movl	$4, (%esp)
	calll	clap_load_post
	cmpl	$2, %esi
	jl	.LBB0_10
# BB#9:                                 # %while.body15
                                        #   in Loop: Header=BB0_8 Depth=1
	.loc	1 24 24                 # /home/naling/src/examples/tso/regression-examples/SyzmanskiSafe/SyzmanskiSafe.c:24:24
.Ltmp11:
	movl	28(%esp), %eax
	leal	1(%eax), %ecx
	movl	%ecx, 28(%esp)
	testl	%eax, %eax
	jle	.LBB0_8
.Ltmp12:
	.align	16, 0x90
.LBB0_10:                               # %while.cond21
                                        # =>This Inner Loop Header: Depth=1
	movl	$55, 16(%esp)
	movl	$32, 12(%esp)
	movl	$0, 8(%esp)
	movl	$flag2, 4(%esp)
	movl	$4, (%esp)
	calll	clap_load_pre
	.loc	1 30 5                  # /home/naling/src/examples/tso/regression-examples/SyzmanskiSafe/SyzmanskiSafe.c:30:5
	movl	flag2, %esi
	movl	$55, 16(%esp)
	movl	$32, 12(%esp)
	movl	$0, 8(%esp)
	movl	$flag2, 4(%esp)
	movl	$4, (%esp)
	calll	clap_load_post
	xorb	%al, %al
	cmpl	$2, %esi
	jl	.LBB0_12
# BB#11:                                # %land.rhs
                                        #   in Loop: Header=BB0_10 Depth=1
	movl	$58, 16(%esp)
	movl	$32, 12(%esp)
	movl	$0, 8(%esp)
	movl	$flag2, 4(%esp)
	movl	$4, (%esp)
	calll	clap_load_pre
	movl	flag2, %esi
	movl	$58, 16(%esp)
	movl	$32, 12(%esp)
	movl	$0, 8(%esp)
	movl	$flag2, 4(%esp)
	movl	$4, (%esp)
	calll	clap_load_post
	cmpl	$4, %esi
	setl	%al
.LBB0_12:                               # %land.end
                                        #   in Loop: Header=BB0_10 Depth=1
	cmpb	$1, %al
	jne	.LBB0_14
# BB#13:                                # %while.body24
                                        #   in Loop: Header=BB0_10 Depth=1
	.loc	1 30 38                 # /home/naling/src/examples/tso/regression-examples/SyzmanskiSafe/SyzmanskiSafe.c:30:38
.Ltmp13:
	movl	24(%esp), %eax
	leal	1(%eax), %ecx
	movl	%ecx, 24(%esp)
	testl	%eax, %eax
	jle	.LBB0_10
.Ltmp14:
.LBB0_14:                               # %while.end29
	movl	$70, 20(%esp)
	movl	$32, 16(%esp)
	movl	$0, 12(%esp)
	movl	$0, 8(%esp)
	movl	$flag1, 4(%esp)
	movl	$5, (%esp)
	calll	clap_store_pre
	.loc	1 31 5                  # /home/naling/src/examples/tso/regression-examples/SyzmanskiSafe/SyzmanskiSafe.c:31:5
	movl	$0, flag1
	movl	$70, 20(%esp)
	movl	$32, 16(%esp)
	movl	$0, 12(%esp)
	movl	$0, 8(%esp)
	movl	$flag1, 4(%esp)
	movl	$5, (%esp)
	calll	clap_store_post
	xorl	%eax, %eax
	.loc	1 33 5                  # /home/naling/src/examples/tso/regression-examples/SyzmanskiSafe/SyzmanskiSafe.c:33:5
	addl	$40, %esp
	popl	%esi
	ret
.Ltmp15:
.Ltmp16:
	.size	thr1, .Ltmp16-thr1
.Lfunc_end0:
.Ltmp17:
	.cfi_endproc
.Leh_func_end0:

	.globl	thr2
	.align	16, 0x90
	.type	thr2,@function
thr2:                                   # @thr2
.Ltmp20:
	.cfi_startproc
.Lfunc_begin1:
	.loc	1 36 0                  # /home/naling/src/examples/tso/regression-examples/SyzmanskiSafe/SyzmanskiSafe.c:36:0
# BB#0:                                 # %entry
	.loc	1 37 13 prologue_end    # /home/naling/src/examples/tso/regression-examples/SyzmanskiSafe/SyzmanskiSafe.c:37:13
	pushl	%esi
.Ltmp21:
	.cfi_def_cfa_offset 8
	subl	$40, %esp
.Ltmp22:
	.cfi_def_cfa_offset 48
.Ltmp23:
	.cfi_offset %esi, -8
	movl	$0, 36(%esp)
	.loc	1 38 13                 # /home/naling/src/examples/tso/regression-examples/SyzmanskiSafe/SyzmanskiSafe.c:38:13
	movl	$0, 32(%esp)
	.loc	1 39 13                 # /home/naling/src/examples/tso/regression-examples/SyzmanskiSafe/SyzmanskiSafe.c:39:13
	movl	$0, 28(%esp)
	.loc	1 40 13                 # /home/naling/src/examples/tso/regression-examples/SyzmanskiSafe/SyzmanskiSafe.c:40:13
	movl	$0, 24(%esp)
	movl	$84, 20(%esp)
	movl	$32, 16(%esp)
	movl	$0, 12(%esp)
	movl	$1, 8(%esp)
	movl	$flag2, 4(%esp)
	movl	$5, (%esp)
	calll	clap_store_pre
	.loc	1 41 5                  # /home/naling/src/examples/tso/regression-examples/SyzmanskiSafe/SyzmanskiSafe.c:41:5
	movl	$1, flag2
	movl	$84, 20(%esp)
	movl	$32, 16(%esp)
	movl	$0, 12(%esp)
	movl	$1, 8(%esp)
	movl	$flag2, 4(%esp)
	movl	$5, (%esp)
	calll	clap_store_post
	.align	16, 0x90
.LBB1_1:                                # %while.cond
                                        # =>This Inner Loop Header: Depth=1
	movl	$86, 16(%esp)
	movl	$32, 12(%esp)
	movl	$0, 8(%esp)
	movl	$flag1, 4(%esp)
	movl	$4, (%esp)
	calll	clap_load_pre
	.loc	1 42 5                  # /home/naling/src/examples/tso/regression-examples/SyzmanskiSafe/SyzmanskiSafe.c:42:5
	movl	flag1, %esi
	movl	$86, 16(%esp)
	movl	$32, 12(%esp)
	movl	$0, 8(%esp)
	movl	$flag1, 4(%esp)
	movl	$4, (%esp)
	calll	clap_load_post
	cmpl	$3, %esi
	jl	.LBB1_3
# BB#2:                                 # %while.body
                                        #   in Loop: Header=BB1_1 Depth=1
	.loc	1 42 24                 # /home/naling/src/examples/tso/regression-examples/SyzmanskiSafe/SyzmanskiSafe.c:42:24
.Ltmp24:
	movl	36(%esp), %eax
	leal	1(%eax), %ecx
	movl	%ecx, 36(%esp)
	testl	%eax, %eax
	jle	.LBB1_1
.Ltmp25:
.LBB1_3:                                # %while.end
	movl	$96, 20(%esp)
	movl	$32, 16(%esp)
	movl	$0, 12(%esp)
	movl	$3, 8(%esp)
	movl	$flag2, 4(%esp)
	movl	$5, (%esp)
	calll	clap_store_pre
	.loc	1 43 5                  # /home/naling/src/examples/tso/regression-examples/SyzmanskiSafe/SyzmanskiSafe.c:43:5
	movl	$3, flag2
	movl	$96, 20(%esp)
	movl	$32, 16(%esp)
	movl	$0, 12(%esp)
	movl	$3, 8(%esp)
	movl	$flag2, 4(%esp)
	movl	$5, (%esp)
	calll	clap_store_post
	movl	$97, 16(%esp)
	movl	$32, 12(%esp)
	movl	$0, 8(%esp)
	movl	$flag1, 4(%esp)
	movl	$4, (%esp)
	calll	clap_load_pre
	.loc	1 44 5                  # /home/naling/src/examples/tso/regression-examples/SyzmanskiSafe/SyzmanskiSafe.c:44:5
	movl	flag1, %esi
	movl	$97, 16(%esp)
	movl	$32, 12(%esp)
	movl	$0, 8(%esp)
	movl	$flag1, 4(%esp)
	movl	$4, (%esp)
	calll	clap_load_post
	cmpl	$1, %esi
	jne	.LBB1_7
# BB#4:                                 # %if.then3
	movl	$100, 20(%esp)
	movl	$32, 16(%esp)
	movl	$0, 12(%esp)
	movl	$2, 8(%esp)
	movl	$flag2, 4(%esp)
	movl	$5, (%esp)
	calll	clap_store_pre
	.loc	1 45 2                  # /home/naling/src/examples/tso/regression-examples/SyzmanskiSafe/SyzmanskiSafe.c:45:2
.Ltmp26:
	movl	$2, flag2
	movl	$100, 20(%esp)
	movl	$32, 16(%esp)
	movl	$0, 12(%esp)
	movl	$2, 8(%esp)
	movl	$flag2, 4(%esp)
	movl	$5, (%esp)
	calll	clap_store_post
	.align	16, 0x90
.LBB1_5:                                # %while.cond4
                                        # =>This Inner Loop Header: Depth=1
	movl	$102, 16(%esp)
	movl	$32, 12(%esp)
	movl	$0, 8(%esp)
	movl	$flag1, 4(%esp)
	movl	$4, (%esp)
	calll	clap_load_pre
	.loc	1 46 2                  # /home/naling/src/examples/tso/regression-examples/SyzmanskiSafe/SyzmanskiSafe.c:46:2
	movl	flag1, %esi
	movl	$102, 16(%esp)
	movl	$32, 12(%esp)
	movl	$0, 8(%esp)
	movl	$flag1, 4(%esp)
	movl	$4, (%esp)
	calll	clap_load_post
	cmpl	$4, %esi
	je	.LBB1_7
# BB#6:                                 # %while.body6
                                        #   in Loop: Header=BB1_5 Depth=1
	.loc	1 46 21                 # /home/naling/src/examples/tso/regression-examples/SyzmanskiSafe/SyzmanskiSafe.c:46:21
.Ltmp27:
	movl	32(%esp), %eax
	leal	1(%eax), %ecx
	movl	%ecx, 32(%esp)
	testl	%eax, %eax
	jle	.LBB1_5
.Ltmp28:
.LBB1_7:                                # %if.end12
	movl	$113, 20(%esp)
	movl	$32, 16(%esp)
	movl	$0, 12(%esp)
	movl	$4, 8(%esp)
	movl	$flag2, 4(%esp)
	movl	$5, (%esp)
	calll	clap_store_pre
	.loc	1 48 5                  # /home/naling/src/examples/tso/regression-examples/SyzmanskiSafe/SyzmanskiSafe.c:48:5
	movl	$4, flag2
	movl	$113, 20(%esp)
	movl	$32, 16(%esp)
	movl	$0, 12(%esp)
	movl	$4, 8(%esp)
	movl	$flag2, 4(%esp)
	movl	$5, (%esp)
	calll	clap_store_post
	.align	16, 0x90
.LBB1_8:                                # %while.cond13
                                        # =>This Inner Loop Header: Depth=1
	movl	$115, 16(%esp)
	movl	$32, 12(%esp)
	movl	$0, 8(%esp)
	movl	$flag1, 4(%esp)
	movl	$4, (%esp)
	calll	clap_load_pre
	.loc	1 49 5                  # /home/naling/src/examples/tso/regression-examples/SyzmanskiSafe/SyzmanskiSafe.c:49:5
	movl	flag1, %esi
	movl	$115, 16(%esp)
	movl	$32, 12(%esp)
	movl	$0, 8(%esp)
	movl	$flag1, 4(%esp)
	movl	$4, (%esp)
	calll	clap_load_post
	cmpl	$2, %esi
	jl	.LBB1_10
# BB#9:                                 # %while.body15
                                        #   in Loop: Header=BB1_8 Depth=1
	.loc	1 49 24                 # /home/naling/src/examples/tso/regression-examples/SyzmanskiSafe/SyzmanskiSafe.c:49:24
.Ltmp29:
	movl	28(%esp), %eax
	leal	1(%eax), %ecx
	movl	%ecx, 28(%esp)
	testl	%eax, %eax
	jle	.LBB1_8
.Ltmp30:
	.align	16, 0x90
.LBB1_10:                               # %while.cond21
                                        # =>This Inner Loop Header: Depth=1
	movl	$126, 16(%esp)
	movl	$32, 12(%esp)
	movl	$0, 8(%esp)
	movl	$flag1, 4(%esp)
	movl	$4, (%esp)
	calll	clap_load_pre
	.loc	1 55 5                  # /home/naling/src/examples/tso/regression-examples/SyzmanskiSafe/SyzmanskiSafe.c:55:5
	movl	flag1, %esi
	movl	$126, 16(%esp)
	movl	$32, 12(%esp)
	movl	$0, 8(%esp)
	movl	$flag1, 4(%esp)
	movl	$4, (%esp)
	calll	clap_load_post
	xorb	%al, %al
	cmpl	$2, %esi
	jl	.LBB1_12
# BB#11:                                # %land.rhs
                                        #   in Loop: Header=BB1_10 Depth=1
	movl	$129, 16(%esp)
	movl	$32, 12(%esp)
	movl	$0, 8(%esp)
	movl	$flag1, 4(%esp)
	movl	$4, (%esp)
	calll	clap_load_pre
	movl	flag1, %esi
	movl	$129, 16(%esp)
	movl	$32, 12(%esp)
	movl	$0, 8(%esp)
	movl	$flag1, 4(%esp)
	movl	$4, (%esp)
	calll	clap_load_post
	cmpl	$4, %esi
	setl	%al
.LBB1_12:                               # %land.end
                                        #   in Loop: Header=BB1_10 Depth=1
	cmpb	$1, %al
	jne	.LBB1_14
# BB#13:                                # %while.body24
                                        #   in Loop: Header=BB1_10 Depth=1
	.loc	1 55 38                 # /home/naling/src/examples/tso/regression-examples/SyzmanskiSafe/SyzmanskiSafe.c:55:38
.Ltmp31:
	movl	24(%esp), %eax
	leal	1(%eax), %ecx
	movl	%ecx, 24(%esp)
	testl	%eax, %eax
	jle	.LBB1_10
.Ltmp32:
.LBB1_14:                               # %while.end29
	movl	$141, 20(%esp)
	movl	$32, 16(%esp)
	movl	$0, 12(%esp)
	movl	$0, 8(%esp)
	movl	$flag2, 4(%esp)
	movl	$5, (%esp)
	calll	clap_store_pre
	.loc	1 56 5                  # /home/naling/src/examples/tso/regression-examples/SyzmanskiSafe/SyzmanskiSafe.c:56:5
	movl	$0, flag2
	movl	$141, 20(%esp)
	movl	$32, 16(%esp)
	movl	$0, 12(%esp)
	movl	$0, 8(%esp)
	movl	$flag2, 4(%esp)
	movl	$5, (%esp)
	calll	clap_store_post
	xorl	%eax, %eax
	.loc	1 57 5                  # /home/naling/src/examples/tso/regression-examples/SyzmanskiSafe/SyzmanskiSafe.c:57:5
	addl	$40, %esp
	popl	%esi
	ret
.Ltmp33:
.Ltmp34:
	.size	thr2, .Ltmp34-thr2
.Lfunc_end1:
.Ltmp35:
	.cfi_endproc
.Leh_func_end1:

	.globl	main
	.align	16, 0x90
	.type	main,@function
main:                                   # @main
.Ltmp37:
	.cfi_startproc
.Lfunc_begin2:
	.loc	1 60 0                  # /home/naling/src/examples/tso/regression-examples/SyzmanskiSafe/SyzmanskiSafe.c:60:0
# BB#0:                                 # %entry
	subl	$28, %esp
.Ltmp38:
	.cfi_def_cfa_offset 32
	movl	$0, 24(%esp)
	leal	20(%esp), %eax
	.loc	1 62 5 prologue_end     # /home/naling/src/examples/tso/regression-examples/SyzmanskiSafe/SyzmanskiSafe.c:62:5
.Ltmp39:
	movl	%eax, (%esp)
	movl	$0, 12(%esp)
	movl	$thr1, 8(%esp)
	movl	$0, 4(%esp)
	calll	clap_thread_create
	leal	16(%esp), %eax
	.loc	1 63 5                  # /home/naling/src/examples/tso/regression-examples/SyzmanskiSafe/SyzmanskiSafe.c:63:5
	movl	%eax, (%esp)
	movl	$0, 12(%esp)
	movl	$thr2, 8(%esp)
	movl	$0, 4(%esp)
	calll	clap_thread_create
	.loc	1 64 5                  # /home/naling/src/examples/tso/regression-examples/SyzmanskiSafe/SyzmanskiSafe.c:64:5
	movl	20(%esp), %eax
	movl	%eax, (%esp)
	movl	$0, 4(%esp)
	calll	clap_thread_join
	.loc	1 65 5                  # /home/naling/src/examples/tso/regression-examples/SyzmanskiSafe/SyzmanskiSafe.c:65:5
	movl	16(%esp), %eax
	movl	%eax, (%esp)
	movl	$0, 4(%esp)
	calll	clap_thread_join
	xorl	%eax, %eax
	.loc	1 66 5                  # /home/naling/src/examples/tso/regression-examples/SyzmanskiSafe/SyzmanskiSafe.c:66:5
	addl	$28, %esp
	ret
.Ltmp40:
.Ltmp41:
	.size	main, .Ltmp41-main
.Lfunc_end2:
.Ltmp42:
	.cfi_endproc
.Leh_func_end2:

	.type	flag1,@object           # @flag1
	.bss
	.globl	flag1
	.align	4
flag1:
	.long	0                       # 0x0
	.size	flag1, 4

	.type	flag2,@object           # @flag2
	.globl	flag2
	.align	4
flag2:
	.long	0                       # 0x0
	.size	flag2, 4

	.type	x,@object               # @x
	.comm	x,4,4
	.cfi_sections .debug_frame
	.text
.Ltext_end:
	.data
.Ldata_end:
	.text
.Lsection_end1:
	.section	".note.GNU-stack","",@progbits
